(lp0
(iPoly
Poly
p1
(dp2
S'reversed'
p3
I01
sS'isClosed'
p4
I01
sS'centroid'
p5
ccopy_reg
_reconstructor
p6
(cVec2
Vec2
p7
c__builtin__
tuple
p8
(F109.15706504866394
F130.3689984308628
tp9
tp10
Rp11
sS'verts'
p12
(lp13
g6
(g7
g8
(F169.22936079315193
F130.3689984308628
tp14
tp15
Rp16
ag6
(g7
g8
(F143.3101311653131
F156.29083695675774
tp17
tp18
Rp19
ag6
(g7
g8
(F143.30495036949492
F165.41379013147676
tp20
tp21
Rp22
ag6
(g7
g8
(F132.61611507656445
F165.4201063710346
tp23
tp24
Rp25
ag6
(g7
g8
(F109.15706504866394
F188.86476785199838
tp26
tp27
Rp28
ag6
(g7
g8
(F73.00539409591175
F188.87305586121386
tp29
tp30
Rp31
ag6
(g7
g8
(F73.06206783740933
F130.3689984308628
tp32
tp33
Rp34
ag6
(g7
g8
(F82.45052052194936
F120.97646983293708
tp35
tp36
Rp37
ag6
(g7
g8
(F82.45501751220215
F92.90042195556404
tp38
tp39
Rp40
ag6
(g7
g8
(F82.46951615733148
F92.88593447035497
tp41
tp42
Rp43
ag6
(g7
g8
(F104.15055388905519
F92.88513495391697
tp44
tp45
Rp46
ag6
(g7
g8
(F109.15706504866394
F87.88237679787468
tp47
tp48
Rp49
ag6
(g7
g8
(F166.8640483272319
F87.85320868918782
tp50
tp51
Rp52
ag6
(g7
g8
(F169.22940365201896
F90.21670234535493
tp53
tp54
Rp55
asS'wtf'
p56
I00
sS'others'
p57
(lp58
I01
aI01
aI01
aI01
aI01
aI01
aI00
aI00
aI00
aI00
aI00
aI00
aI00
aI00
asS'borders'
p59
(lp60
(iPoly
Border
p61
(dp62
S'flipped'
p63
I00
sS'nVerts'
p64
I2
sS'next'
p65
(iPoly
Border
p66
(dp67
g63
I00
sg64
I4
sg65
(iPoly
Border
p68
(dp69
g63
I00
sg64
I2
sg65
(iPoly
Border
p70
(dp71
g63
I00
sg64
I4
sg65
(iPoly
Border
p72
(dp73
g63
I00
sg64
I4
sg65
(iPoly
Border
p74
(dp75
g63
I00
sg64
I4
sg65
g61
sS'other'
p76
(iPoly
Poly
p77
(dp78
g3
I00
sg4
I01
sg5
g6
(g7
g8
(F203.38242690980107
F156.29083695675774
tp79
tp80
Rp81
sg12
(lp82
g6
(g7
g8
(F263.78603854024954
F176.88063233136802
tp83
tp84
Rp85
ag6
(g7
g8
(F263.79421806712173
F161.01481380605713
tp86
tp87
Rp88
ag6
(g7
g8
(F268.513721858272
F156.29083695675774
tp89
tp90
Rp91
ag6
(g7
g8
(F268.5822660566745
F99.59669716645473
tp92
tp93
Rp94
ag6
(g7
g8
(F212.70299405875159
F99.54783697433054
tp95
tp96
Rp97
ag6
(g7
g8
(F203.38242690980107
F90.2217222006755
tp98
tp99
Rp100
ag6
(g7
g8
(F169.22940367881537
F90.1915981487607
tp101
tp102
Rp103
ag16
ag19
ag6
(g7
g8
(F143.30494644246707
F165.4207053029208
tp104
tp105
Rp106
ag6
(g7
g8
(F184.37484675252523
F206.47119108617534
tp107
tp108
Rp109
ag6
(g7
g8
(F203.38242690980107
F206.45357477413398
tp110
tp111
Rp112
ag6
(g7
g8
(F223.00785652887856
F186.83148068537844
tp113
tp114
Rp115
ag6
(g7
g8
(F253.8697047005502
F186.80385079369236
tp116
tp117
Rp118
asg56
I00
sg57
(lp119
I01
aI01
aI01
aI00
aI00
aI00
aI01
aI01
aI01
aI01
aI01
aI01
aI01
aI01
asg59
(lp120
(iPoly
Border
p121
(dp122
g63
I00
sg64
I4
sg65
(iPoly
Border
p123
(dp124
g63
I00
sg64
I4
sg65
(iPoly
Border
p125
(dp126
g63
I00
sg64
I4
sg65
(iPoly
Border
p127
(dp128
g63
I00
sg64
I2
sg65
(iPoly
Border
p129
(dp130
g63
I00
sg64
I4
sg65
(iPoly
Border
p131
(dp132
g63
I00
sg64
I2
sg65
g121
sg76
(iPoly
Poly
p133
(dp134
g3
I00
sg4
I01
sg5
g6
(g7
g8
(F329.4839532231325
F192.17244897267534
tp135
tp136
Rp137
sg12
(lp138
g6
(g7
g8
(F347.46988537632444
F217.92850057453228
tp139
tp140
Rp141
ag6
(g7
g8
(F347.49629590317255
F195.85850152430456
tp142
tp143
Rp144
ag6
(g7
g8
(F351.18104659205113
F192.17244897267534
tp145
tp146
Rp147
ag6
(g7
g8
(F351.183725499755
F187.10672152402242
tp148
tp149
Rp150
ag6
(g7
g8
(F350.478458091674
F187.10593137728858
tp151
tp152
Rp153
ag6
(g7
g8
(F339.68278123098537
F176.3090755922439
tp154
tp155
Rp156
ag6
(g7
g8
(F329.4839532231325
F176.31459666247386
tp157
tp158
Rp159
ag6
(g7
g8
(F328.9255130155926
F176.8726661162586
tp160
tp161
Rp162
ag6
(g7
g8
(F263.7673985212168
F176.8992852916246
tp163
tp164
Rp165
ag6
(g7
g8
(F253.832838760618
F186.8407423285761
tp166
tp167
Rp168
ag6
(g7
g8
(F253.83437709036866
F192.17244897267534
tp169
tp170
Rp171
ag6
(g7
g8
(F293.9054333716587
F232.24235555481118
tp172
tp173
Rp174
ag6
(g7
g8
(F329.4839532231325
F232.23327907684433
tp175
tp176
Rp177
ag6
(g7
g8
(F343.7907243548619
F217.93295922212303
tp178
tp179
Rp180
asg56
I00
sg57
(lp181
I01
aI01
aI01
aI01
aI01
aI01
aI01
aI01
aI01
aI01
aI01
aI01
aI01
aI01
asg59
(lp182
(iPoly
Border
p183
(dp184
g63
I00
sg64
I4
sg65
(iPoly
Border
p185
(dp186
g63
I00
sg64
I3
sg65
(iPoly
Border
p187
(dp188
g63
I00
sg64
I4
sg65
(iPoly
Border
p189
(dp190
g63
I00
sg64
I2
sg65
(iPoly
Border
p191
(dp192
g63
I00
sg64
I3
sg65
(iPoly
Border
p193
(dp194
g63
I00
sg64
I4
sg65
g183
sg76
(iPoly
Poly
p195
(dp196
g3
I01
sg4
I01
sg5
g6
(g7
g8
(F343.7907243548619
F257.99378932629196
tp197
tp198
Rp199
sg12
(lp200
g6
(g7
g8
(F415.50315421589954
F257.99378932629196
tp201
tp202
Rp203
ag6
(g7
g8
(F396.5232319073715
F276.98983838893685
tp204
tp205
Rp206
ag6
(g7
g8
(F396.5194289278909
F280.798125264407
tp207
tp208
Rp209
ag6
(g7
g8
(F343.7907243548619
F280.7895477054629
tp210
tp211
Rp212
ag6
(g7
g8
(F332.23193911420043
F269.22038139328043
tp213
tp214
Rp215
ag6
(g7
g8
(F272.9019292097275
F269.1912511429211
tp216
tp217
Rp218
ag6
(g7
g8
(F272.9078704274781
F257.99378932629196
tp219
tp220
Rp221
ag6
(g7
g8
(F293.89071045626235
F236.99421850275468
tp222
tp223
Rp224
ag6
(g7
g8
(F293.89105424534597
F232.24235922308696
tp225
tp226
Rp227
ag177
ag180
ag6
(g7
g8
(F347.5018197726799
F217.92846187434532
tp228
tp229
Rp230
ag6
(g7
g8
(F369.19338927209117
F239.63799825181005
tp231
tp232
Rp233
ag6
(g7
g8
(F414.4119477216105
F239.67997329505684
tp234
tp235
Rp236
ag6
(g7
g8
(F415.51273641278
F240.7801484692924
tp237
tp238
Rp239
asg56
I00
sg57
(lp240
I00
aI00
aI00
aI01
aI01
aI01
aI01
aI01
aI01
aI01
aI01
aI01
aI01
aI01
aI01
asg59
(lp241
(iPoly
Border
p242
(dp243
g63
I00
sg64
I2
sg65
(iPoly
Border
p244
(dp245
g63
I00
sg64
I3
sg65
(iPoly
Border
p246
(dp247
g63
I00
sg64
I4
sg65
(iPoly
Border
p248
(dp249
g63
I00
sg64
I4
sg65
(iPoly
Border
p250
(dp251
g63
I00
sg64
I4
sg65
(iPoly
Border
p252
(dp253
g63
I00
sg64
I4
sg65
g242
sg76
(iPoly
Poly
p254
(dp255
g4
I00
sg59
(lp256
(iPoly
Border
p257
(dp258
S'prev'
p259
NsS'line'
p260
(lp261
g6
(g7
g8
(I512
F225.12150964989806
tp262
tp263
Rp264
ag6
(g7
g8
(F504.59279311989303
F225.11305878345962
tp265
tp266
Rp267
ag6
(g7
g8
(F500.3752308031159
F220.89543023224036
tp268
tp269
Rp270
asg76
(iPoly
Poly
p271
(dp272
g4
I00
sg59
(lp273
(iPoly
Border
p274
(dp275
g259
Nsg260
(lp276
g6
(g7
g8
(I512
F44.49013318298035
tp277
tp278
Rp279
ag6
(g7
g8
(F504.59279311989303
F44.49827789338224
tp280
tp281
Rp282
ag6
(g7
g8
(F452.5474771584416
F96.50710046705595
tp283
tp284
Rp285
asg76
(iPoly
Poly
p286
(dp287
g4
I00
sg59
(lp288
(iPoly
Border
p289
(dp290
g259
Nsg260
(lp291
g6
(g7
g8
(F409.00622540607526
I-512
tp292
tp293
Rp294
ag6
(g7
g8
(F409.4433029248797
F4.937762078475474
tp295
tp296
Rp297
ag6
(g7
g8
(F442.4334683573424
F37.90126607477965
tp298
tp299
Rp300
ag6
(g7
g8
(F442.4850454403774
F93.14605069811529
tp301
tp302
Rp303
asg76
(iPoly
Poly
p304
(dp305
g4
I00
sg59
(lp306
(iPoly
Border
p307
(dp308
g259
Nsg260
(lp309
g6
(g7
g8
(F369.30373415506676
I-512
tp310
tp311
Rp312
ag6
(g7
g8
(F368.9865422833561
F18.587156386002327
tp313
tp314
Rp315
ag6
(g7
g8
(F349.6800035700797
F37.90126607477965
tp316
tp317
Rp318
ag6
(g7
g8
(F349.66002639356685
F74.63665532876016
tp319
tp320
Rp321
asg76
(iPoly
Poly
p322
(dp323
g4
I00
sg59
(lp324
(iPoly
Border
p325
(dp326
g259
Nsg260
(lp327
g6
(g7
g8
(F257.9896990434972
I-512
tp328
tp329
Rp330
ag6
(g7
g8
(F258.1672346842935
F18.587156386002327
tp331
tp332
Rp333
ag6
(g7
g8
(F273.0614814955819
F33.478722218248265
tp334
tp335
Rp336
ag6
(g7
g8
(F273.1150424531734
F95.04221997457262
tp337
tp338
Rp339
asg76
(iPoly
Poly
p340
(dp341
g4
I00
sg59
(lp342
(iPoly
Border
p343
(dp344
g259
Nsg260
(lp345
g6
(g7
g8
(F149.85012783010578
I-512
tp346
tp347
Rp348
ag6
(g7
g8
(F149.96184711038413
F33.478722218248265
tp349
tp350
Rp351
ag6
(g7
g8
(F166.89170083742263
F50.39851332092886
tp352
tp353
Rp354
ag6
(g7
g8
(F166.92757916059333
F87.91668952018486
tp355
tp356
Rp357
asg76
(iPoly
Poly
p358
(dp359
g4
I00
sg59
(lp360
(iPoly
Border
p361
(dp362
g259
Nsg260
(lp363
g348
ag351
ag354
ag6
(g7
g8
(F166.92751842371814
F87.85317660810219
tp364
tp365
Rp366
asg76
g340
sg63
I00
sg65
(iPoly
Border
p367
(dp368
g259
g361
sg260
(lp369
g366
ag49
ag46
ag6
(g7
g8
(F82.47225744080104
F92.88593436926658
tp370
tp371
Rp372
asg76
g1
sg63
I00
sg65
(iPoly
Border
p373
(dp374
g259
g367
sg260
(lp375
g372
ag6
(g7
g8
(F82.46855134781522
F55.394648190917096
tp376
tp377
Rp378
ag6
(g7
g8
(F77.47219845994066
F50.39851332092886
tp379
tp380
Rp381
ag6
(g7
g8
(F76.96583037722725
I-512
tp382
tp383
Rp384
asg76
(iPoly
Poly
p385
(dp386
g4
I00
sg59
(lp387
(iPoly
Border
p388
(dp389
g259
Nsg260
(lp390
g6
(g7
g8
(I-512
F83.05449890310243
tp391
tp392
Rp393
ag6
(g7
g8
(F46.35552331069476
F83.46543236442739
tp394
tp395
Rp396
ag6
(g7
g8
(F55.79019591870068
F92.90568565942681
tp397
tp398
Rp399
ag6
(g7
g8
(F82.4455539094316
F92.90987827399518
tp400
tp401
Rp402
asg76
(iPoly
Poly
p403
(dp404
g4
I00
sg59
(lp405
(iPoly
Border
p406
(dp407
g259
Nsg260
(lp408
g6
(g7
g8
(I-512
F176.71945901754603
tp409
tp410
Rp411
ag6
(g7
g8
(F32.46198324419488
F177.12132638260806
tp412
tp413
Rp414
ag6
(g7
g8
(F46.35552331069476
F191.01663752200938
tp415
tp416
Rp417
ag6
(g7
g8
(F70.90391625563849
F191.02421886509154
tp418
tp419
Rp420
asg76
(iPoly
Poly
p421
(dp422
g4
I00
sg59
(lp423
(iPoly
Border
p424
(dp425
g259
Nsg260
(lp426
g6
(g7
g8
(I-512
F270.1275850454778
tp427
tp428
Rp429
ag6
(g7
g8
(F32.46198324419488
F269.7544851297402
tp430
tp431
Rp432
ag6
(g7
g8
(F39.033979222266666
F263.18735787606994
tp433
tp434
Rp435
ag6
(g7
g8
(F81.43910048845369
F263.1841326922373
tp436
tp437
Rp438
asg76
(iPoly
Poly
p439
(dp440
g4
I00
sg59
(lp441
(iPoly
Border
p442
(dp443
g259
Nsg260
(lp444
g6
(g7
g8
(I-512
F357.88861108465
tp445
tp446
Rp447
ag6
(g7
g8
(F39.033979222266666
F357.38887395521834
tp448
tp449
Rp450
ag6
(g7
g8
(F58.12590158265644
F338.29921243276584
tp451
tp452
Rp453
ag6
(g7
g8
(F71.52686003308484
F338.2972208096756
tp454
tp455
Rp456
asg76
(iPoly
Poly
p457
(dp458
g4
I00
sg59
(lp459
(iPoly
Border
p460
(dp461
g259
Nsg260
(lp462
g447
ag450
ag453
ag6
(g7
g8
(F71.50076666908771
F338.2972246876181
tp463
tp464
Rp465
asg76
g439
sg63
I00
sg65
(iPoly
Border
p466
(dp467
g259
g460
sg260
(lp468
g465
ag6
(g7
g8
(F71.52366853032603
F396.36187009617186
tp469
tp470
Rp471
ag6
(g7
g8
(F85.06988546401601
F409.9077374538544
tp472
tp473
Rp474
ag6
(g7
g8
(F85.07038932672975
F420.7175385401309
tp475
tp476
Rp477
asg76
(iPoly
Poly
p478
(dp479
g3
I00
sg4
I01
sg5
g6
(g7
g8
(F98.46765241168555
F396.36187009617186
tp480
tp481
Rp482
sg12
(lp483
g6
(g7
g8
(F186.08104698387956
F416.04423464695
tp484
tp485
Rp486
ag6
(g7
g8
(F186.0748995546158
F396.36187009617186
tp487
tp488
Rp489
ag6
(g7
g8
(F145.18067340979405
F355.49752187856103
tp490
tp491
Rp492
ag6
(g7
g8
(F145.17877346463453
F353.8028506769907
tp493
tp494
Rp495
ag6
(g7
g8
(F117.32075480586607
F353.77097980208976
tp496
tp497
Rp498
ag6
(g7
g8
(F98.46765241168555
F334.90075085489354
tp499
tp500
Rp501
ag6
(g7
g8
(F74.94584138117422
F334.88089419259114
tp502
tp503
Rp504
ag6
(g7
g8
(F71.50077694726252
F338.3232836428058
tp505
tp506
Rp507
ag471
ag474
ag6
(g7
g8
(F85.07038929026403
F420.7167562098737
tp508
tp509
Rp510
ag6
(g7
g8
(F98.46765241168555
F434.1165549002816
tp511
tp512
Rp513
ag6
(g7
g8
(F167.98537614487427
F434.1410903440765
tp514
tp515
Rp516
asg56
I00
sg57
(lp517
I01
aI01
aI01
aI01
aI01
aI01
aI00
aI00
aI00
aI00
aI00
aI00
aI00
asg59
(lp518
(iPoly
Border
p519
(dp520
g63
I00
sg64
I4
sg65
(iPoly
Border
p521
(dp522
g63
I00
sg64
I4
sg65
(iPoly
Border
p523
(dp524
g63
I00
sg64
I2
sg65
(iPoly
Border
p525
(dp526
g63
I00
sg64
I4
sg65
(iPoly
Border
p527
(dp528
g63
I00
sg64
I3
sg65
(iPoly
Border
p529
(dp530
g63
I00
sg64
I2
sg65
g519
sg76
(iPoly
Poly
p531
(dp532
g4
I00
sg59
(lp533
(iPoly
Border
p534
(dp535
g259
Nsg260
(lp536
g6
(g7
g8
(F176.3639736083373
I512
tp537
tp538
Rp539
ag6
(g7
g8
(F176.36295733551293
F492.8779703837978
tp540
tp541
Rp542
ag6
(g7
g8
(F159.15602896825283
F475.6806376433365
tp543
tp544
Rp545
ag6
(g7
g8
(F159.1480099778614
F455.30213749158673
tp546
tp547
Rp548
asg76
(iPoly
Poly
p549
(dp550
g4
I00
sg59
(lp551
(iPoly
Border
p552
(dp553
g259
Nsg260
(lp554
g6
(g7
g8
(I-512
F484.2296813877083
tp555
tp556
Rp557
ag6
(g7
g8
(F73.04412679805475
F484.0250913146301
tp558
tp559
Rp560
ag6
(g7
g8
(F101.77596727660656
F455.29578149783833
tp561
tp562
Rp563
ag6
(g7
g8
(F159.14798659249294
F455.2427087216879
tp564
tp565
Rp566
asg76
(iPoly
Poly
p567
(dp568
g4
I00
sg59
(lp569
(iPoly
Border
p570
(dp571
g259
Nsg260
(lp572
g557
ag560
ag563
ag6
(g7
g8
(F159.207440088675
F455.2426537234129
tp573
tp574
Rp575
asg76
g549
sg63
I00
sg65
(iPoly
Border
p576
(dp577
g259
g570
sg260
(lp578
g575
ag6
(g7
g8
(F167.99925356374968
F446.4429024286707
tp579
tp580
Rp581
ag6
(g7
g8
(F168.000815989268
F434.1410957933837
tp582
tp583
Rp584
asg76
g531
sg63
I00
sg65
(iPoly
Border
p585
(dp586
g259
g576
sg260
(lp587
g584
ag513
ag6
(g7
g8
(F85.071171470181
F420.7175385378263
tp588
tp589
Rp590
asg76
g478
sg63
I00
sg65
(iPoly
Border
p591
(dp592
g259
g585
sg260
(lp593
g590
ag6
(g7
g8
(F73.04412679805475
F420.71757397571923
tp594
tp595
Rp596
ag6
(g7
g8
(F58.12590158265644
F435.6330659068059
tp597
tp598
Rp599
ag6
(g7
g8
(I-512
F436.26501667389493
tp600
tp601
Rp602
asg76
g457
sg63
I00
sg65
Nsbsbsbsbag576
ag585
ag591
asg5
g6
(g7
g8
(F73.04412679805475
F446.4429024286707
tp603
tp604
Rp605
sg56
I00
sbsg63
I00
sg65
(iPoly
Border
p606
(dp607
g259
g552
sg260
(lp608
g566
ag545
ag542
ag539
asg76
g531
sg63
I00
sg65
Nsbsbag606
asg5
g6
(g7
g8
(F101.77596727660656
F492.8779703837978
tp609
tp610
Rp611
sg56
I00
sbsg63
I00
sg65
(iPoly
Border
p612
(dp613
g259
g534
sg260
(lp614
g548
ag581
ag6
(g7
g8
(F168.0008179513185
F434.12564752654237
tp615
tp616
Rp617
asg76
g567
sg63
I00
sg65
(iPoly
Border
p618
(dp619
g259
g612
sg260
(lp620
g617
ag6
(g7
g8
(F186.03927816763272
F416.08600619811176
tp621
tp622
Rp623
asg76
g478
sg63
I00
sg65
(iPoly
Border
p624
(dp625
g259
g618
sg260
(lp626
g623
ag6
(g7
g8
(F232.7879205527244
F416.06633901316496
tp627
tp628
Rp629
ag6
(g7
g8
(F233.74301902715928
F415.1118205087326
tp630
tp631
Rp632
ag6
(g7
g8
(F249.1813191309215
F415.0993110294799
tp633
tp634
Rp635
asg76
(iPoly
Poly
p636
(dp637
g3
I01
sg4
I01
sg5
g6
(g7
g8
(F232.7879205527244
F355.49752187856103
tp638
tp639
Rp640
sg12
(lp641
g6
(g7
g8
(F249.20673061804936
F415.09929043884046
tp642
tp643
Rp644
ag632
ag629
ag6
(g7
g8
(F186.0810600249752
F416.0859886204566
tp645
tp646
Rp647
ag489
ag492
ag6
(g7
g8
(F145.17875861396845
F353.78960450723713
tp648
tp649
Rp650
ag6
(g7
g8
(F149.73799333038227
F349.22879271194466
tp651
tp652
Rp653
ag6
(g7
g8
(F174.59070437966832
F349.21024932940253
tp654
tp655
Rp656
ag6
(g7
g8
(F222.68310354704084
F301.1361672262972
tp657
tp658
Rp659
ag6
(g7
g8
(F223.00785652887856
F301.13581540823844
tp660
tp661
Rp662
ag6
(g7
g8
(F232.7879205527244
F291.3559249730773
tp663
tp664
Rp665
ag6
(g7
g8
(F250.75540416416572
F291.3480238948895
tp666
tp667
Rp668
ag6
(g7
g8
(F250.75621605610667
F292.01613977245137
tp669
tp670
Rp671
ag6
(g7
g8
(F263.41540420261873
F304.67013617609325
tp672
tp673
Rp674
ag6
(g7
g8
(F263.43448658427207
F345.08561827754266
tp675
tp676
Rp677
ag6
(g7
g8
(F273.85064600733966
F355.49752187856103
tp678
tp679
Rp680
ag6
(g7
g8
(F273.8608402362683
F390.4657534649996
tp681
tp682
Rp683
asg56
I00
sg57
(lp684
I00
aI00
aI00
aI00
aI01
aI01
aI01
aI01
aI01
aI01
aI01
aI01
aI01
aI01
aI01
aI01
aI01
aI01
asg59
(lp685
(iPoly
Border
p686
(dp687
g63
I00
sg64
I4
sg65
(iPoly
Border
p688
(dp689
g63
I00
sg64
I3
sg65
(iPoly
Border
p690
(dp691
g63
I00
sg64
I4
sg65
(iPoly
Border
p692
(dp693
g63
I00
sg64
I3
sg65
(iPoly
Border
p694
(dp695
g63
I00
sg64
I2
sg65
(iPoly
Border
p696
(dp697
g63
I00
sg64
I4
sg65
(iPoly
Border
p698
(dp699
g63
I00
sg64
I4
sg65
(iPoly
Border
p700
(dp701
g63
I00
sg64
I2
sg65
g686
sg76
(iPoly
Poly
p702
(dp703
g4
I00
sg59
(lp704
(iPoly
Border
p705
(dp706
g259
Nsg260
(lp707
g6
(g7
g8
(F317.5186187001547
I512
tp708
tp709
Rp710
ag6
(g7
g8
(F317.53928497483525
F493.9833147835935
tp711
tp712
Rp713
ag6
(g7
g8
(F370.45191699066123
F441.0246378905601
tp714
tp715
Rp716
ag6
(g7
g8
(F370.4750933840217
F421.56536190727115
tp717
tp718
Rp719
asg76
(iPoly
Poly
p720
(dp721
g4
I00
sg59
(lp722
(iPoly
Border
p723
(dp724
g259
Nsg260
(lp725
g710
ag713
ag716
ag6
(g7
g8
(F370.47514391049293
F421.52293906206046
tp726
tp727
Rp728
asg76
g702
sg63
I00
sg65
(iPoly
Border
p729
(dp730
g259
g723
sg260
(lp731
g728
ag6
(g7
g8
(F382.37604075744844
F409.6301336044313
tp732
tp733
Rp734
asg76
(iPoly
Poly
p735
(dp736
g3
I01
sg4
I01
sg5
g6
(g7
g8
(F351.52799117783445
F349.82322707415614
tp737
tp738
Rp739
sg12
(lp740
g6
(g7
g8
(F430.0553294436765
F349.82322707415614
tp741
tp742
Rp743
ag6
(g7
g8
(F382.3563891971424
F397.5516024225179
tp744
tp745
Rp746
ag6
(g7
g8
(F382.35406474023347
F409.6520946802084
tp747
tp748
Rp749
ag6
(g7
g8
(F370.43273716576243
F421.5653169745537
tp750
tp751
Rp752
ag6
(g7
g8
(F351.52799117783445
F421.5452622660519
tp753
tp754
Rp755
ag6
(g7
g8
(F325.64131305832996
F395.63638866705116
tp756
tp757
Rp758
ag6
(g7
g8
(F325.6457288158842
F349.82322707415614
tp759
tp760
Rp761
ag6
(g7
g8
(F330.37947440083764
F345.08561827754266
tp762
tp763
Rp764
ag6
(g7
g8
(F330.3971629241617
F330.5595187978628
tp765
tp766
Rp767
ag6
(g7
g8
(F332.23193911420043
F330.5582017111008
tp768
tp769
Rp770
ag6
(g7
g8
(F351.52799117783445
F311.2811651355066
tp771
tp772
Rp773
ag6
(g7
g8
(F407.74803811297653
F311.2742952372985
tp774
tp775
Rp776
ag6
(g7
g8
(F430.064645212769
F333.5746823287988
tp777
tp778
Rp779
asg56
I00
sg57
(lp780
I00
aI00
aI00
aI00
aI00
aI00
aI01
aI01
aI01
aI01
aI01
aI01
aI00
asg59
(lp781
(iPoly
Border
p782
(dp783
g63
I00
sg64
I2
sg65
(iPoly
Border
p784
(dp785
g63
I00
sg64
I4
sg65
(iPoly
Border
p786
(dp787
g63
I00
sg64
I4
sg65
(iPoly
Border
p788
(dp789
g63
I00
sg64
I3
sg65
(iPoly
Border
p790
(dp791
g63
I00
sg64
I2
sg65
(iPoly
Border
p792
(dp793
g63
I00
sg64
I4
sg65
g782
sg76
(iPoly
Poly
p794
(dp795
g4
I00
sg59
(lp796
(iPoly
Border
p797
(dp798
g259
Nsg260
(lp799
g6
(g7
g8
(I512
F340.95807329007937
tp800
tp801
Rp802
ag6
(g7
g8
(F468.2356617684093
F340.949745697159
tp803
tp804
Rp805
ag6
(g7
g8
(F460.8837274629844
F333.5916951142958
tp806
tp807
Rp808
ag6
(g7
g8
(F430.0646479316618
F333.5699400417722
tp809
tp810
Rp811
asg76
g254
sg63
I00
sg65
(iPoly
Border
p812
(dp813
g259
g797
sg260
(lp814
g811
ag743
ag746
ag6
(g7
g8
(F382.3540689608045
F409.6301235320929
tp815
tp816
Rp817
asg76
g735
sg63
I00
sg65
(iPoly
Border
p818
(dp819
g259
g812
sg260
(lp820
g817
ag6
(g7
g8
(F388.66111538433177
F409.63301481618237
tp821
tp822
Rp823
ag6
(g7
g8
(F423.7527702357913
F444.74715408983565
tp824
tp825
Rp826
asg76
g720
sg63
I00
sg65
(iPoly
Border
p827
(dp828
g259
g818
sg260
(lp829
g826
ag6
(g7
g8
(F460.8837274629844
F444.7414733234789
tp830
tp831
Rp832
ag6
(g7
g8
(F480.758107543545
F424.8766172845051
tp833
tp834
Rp835
ag6
(g7
g8
(I512
F424.8711732820227
tp836
tp837
Rp838
asg76
(iPoly
Poly
p839
(dp840
g4
I00
sg59
(lp841
(iPoly
Border
p842
(dp843
g259
Nsg260
(lp844
g6
(g7
g8
(F445.6884914269155
I512
tp845
tp846
Rp847
ag6
(g7
g8
(F445.67025614803305
F493.9833147835935
tp848
tp849
Rp850
ag6
(g7
g8
(F423.74896677984367
F472.066488185466
tp851
tp852
Rp853
ag6
(g7
g8
(F423.74473812011075
F444.74715531869094
tp854
tp855
Rp856
asg76
g720
sg63
I00
sg65
(iPoly
Border
p857
(dp858
g259
g842
sg260
(lp859
g856
ag832
ag835
ag838
asg76
g794
sg63
I00
sg65
Nsbsbag857
asg5
g6
(g7
g8
(F480.758107543545
F472.066488185466
tp860
tp861
Rp862
sg56
I00
sbsg63
I00
sg65
Nsbsbsbsbag812
ag818
ag827
asg5
g6
(g7
g8
(F460.8837274629844
F397.5516024225179
tp863
tp864
Rp865
sg56
I00
sbsg259
g790
sbsg76
g720
sg259
g788
sbsg76
g702
sg259
g786
sbsg76
(iPoly
Poly
p866
(dp867
g3
I00
sg4
I01
sg5
g6
(g7
g8
(F304.4972120388873
F345.08561827754266
tp868
tp869
Rp870
sg12
(lp871
g6
(g7
g8
(F273.8608378502109
F390.45756881372546
tp872
tp873
Rp874
ag6
(g7
g8
(F299.3300865811648
F390.4696985999244
tp875
tp876
Rp877
ag6
(g7
g8
(F304.4972120388873
F395.6405575681784
tp878
tp879
Rp880
ag6
(g7
g8
(F325.64131201167595
F395.64724762592465
tp881
tp882
Rp883
ag761
ag764
ag6
(g7
g8
(F330.39712175836235
F330.59332481352567
tp884
tp885
Rp886
ag6
(g7
g8
(F304.4972120388873
F304.6721063106744
tp887
tp888
Rp889
ag6
(g7
g8
(F263.4153815081463
F304.6220704754086
tp890
tp891
Rp892
ag677
ag680
asg56
I00
sg57
(lp893
I00
aI00
aI00
aI01
aI01
aI01
aI01
aI01
aI01
aI01
aI01
asg59
(lp894
(iPoly
Border
p895
(dp896
g63
I00
sg64
I4
sg65
(iPoly
Border
p897
(dp898
g63
I00
sg64
I4
sg65
(iPoly
Border
p899
(dp900
g63
I00
sg64
I3
sg65
(iPoly
Border
p901
(dp902
g63
I00
sg64
I4
sg65
g895
sg76
g636
sg259
g899
sbsg76
(iPoly
Poly
p903
(dp904
g3
I00
sg4
I01
sg5
g6
(g7
g8
(F332.23193911420043
F292.01613977245137
tp905
tp906
Rp907
sg12
(lp908
g6
(g7
g8
(F407.7492633807903
F311.2742950875749
tp909
tp910
Rp911
ag773
ag770
ag6
(g7
g8
(F330.3633677730265
F330.5595430575771
tp912
tp913
Rp914
ag889
ag6
(g7
g8
(F263.3672601475906
F304.6220118657401
tp915
tp916
Rp917
ag671
ag6
(g7
g8
(F250.75545271565798
F291.38797751584445
tp918
tp919
Rp920
ag6
(g7
g8
(F272.9370078534571
F269.1912683660713
tp921
tp922
Rp923
ag215
ag212
ag6
(g7
g8
(F396.5285088491659
F280.7981267414689
tp924
tp925
Rp926
ag6
(g7
g8
(F407.7478216220389
F292.01613977245137
tp927
tp928
Rp929
asg56
I00
sg57
(lp930
I01
aI01
aI01
aI01
aI01
aI01
aI01
aI01
aI01
aI01
aI01
aI00
aI00
asg59
(lp931
(iPoly
Border
p932
(dp933
g63
I00
sg64
I4
sg65
(iPoly
Border
p934
(dp935
g63
I00
sg64
I3
sg65
(iPoly
Border
p936
(dp937
g63
I00
sg64
I3
sg65
(iPoly
Border
p938
(dp939
g63
I00
sg64
I2
sg65
(iPoly
Border
p940
(dp941
g63
I00
sg64
I4
sg65
(iPoly
Border
p942
(dp943
g63
I00
sg64
I3
sg65
g932
sg76
g254
sg259
g940
sbsg76
g195
sg259
g938
sbsg76
(iPoly
Poly
p944
(dp945
g3
I00
sg4
I01
sg5
g6
(g7
g8
(F223.00785652887856
F236.99421850275468
tp946
tp947
Rp948
sg12
(lp949
g6
(g7
g8
(F250.7953966341114
F291.348006308474
tp950
tp951
Rp952
ag6
(g7
g8
(F272.9019105657334
F269.22638963158715
tp953
tp954
Rp955
ag221
ag224
ag6
(g7
g8
(F293.891055285812
F232.22797788149347
tp956
tp957
Rp958
ag171
ag6
(g7
g8
(F253.83282812601973
F186.80388380842803
tp959
tp960
Rp961
ag115
ag112
ag6
(g7
g8
(F184.3691843757175
F206.47119633409199
tp962
tp963
Rp964
ag6
(g7
g8
(F184.35030910465358
F223.9158757921701
tp965
tp966
Rp967
ag6
(g7
g8
(F174.91922255950192
F233.34818559659874
tp968
tp969
Rp970
ag6
(g7
g8
(F174.91957925825838
F236.99421850275468
tp971
tp972
Rp973
ag6
(g7
g8
(F222.6789816502886
F284.74792631668197
tp974
tp975
Rp976
ag6
(g7
g8
(F222.68125876707532
F301.136169224822
tp977
tp978
Rp979
ag662
ag665
asg56
I00
sg57
(lp980
I01
aI01
aI01
aI01
aI01
aI01
aI01
aI01
aI01
aI01
aI01
aI01
aI01
aI01
aI01
aI01
aI01
asg59
(lp981
(iPoly
Border
p982
(dp983
g63
I00
sg64
I2
sg65
(iPoly
Border
p984
(dp985
g63
I00
sg64
I4
sg65
(iPoly
Border
p986
(dp987
g63
I00
sg64
I3
sg65
(iPoly
Border
p988
(dp989
g63
I00
sg64
I4
sg65
(iPoly
Border
p990
(dp991
g63
I00
sg64
I3
sg65
(iPoly
Border
p992
(dp993
g63
I00
sg64
I4
sg65
(iPoly
Border
p994
(dp995
g63
I00
sg64
I4
sg65
g982
sg76
g636
sg259
g992
sbsg76
(iPoly
Poly
p996
(dp997
g3
I01
sg4
I01
sg5
g6
(g7
g8
(F174.59070437966832
F284.74792631668197
tp998
tp999
Rp1000
sg12
(lp1001
g656
ag6
(g7
g8
(F149.76114301087608
F349.2287754392463
tp1002
tp1003
Rp1004
ag6
(g7
g8
(F149.73683908794834
F292.3098605608115
tp1005
tp1006
Rp1007
ag6
(g7
g8
(F142.174620097586
F284.74792631668197
tp1008
tp1009
Rp1010
ag6
(g7
g8
(F142.17131982143016
F265.7594139301422
tp1011
tp1012
Rp1013
ag6
(g7
g8
(F174.59070437966832
F233.35300902202633
tp1014
tp1015
Rp1016
ag6
(g7
g8
(F174.91922302214206
F233.3529145204315
tp1017
tp1018
Rp1019
ag973
ag976
ag6
(g7
g8
(F222.6812590229933
F301.1380110478166
tp1020
tp1021
Rp1022
asg56
I00
sg57
(lp1023
I01
aI01
aI01
aI01
aI01
aI01
aI01
aI01
aI01
aI01
asg59
(lp1024
(iPoly
Border
p1025
(dp1026
g63
I00
sg64
I4
sg65
(iPoly
Border
p1027
(dp1028
g63
I00
sg64
I3
sg65
(iPoly
Border
p1029
(dp1030
g63
I00
sg64
I4
sg65
(iPoly
Border
p1031
(dp1032
g63
I00
sg64
I3
sg65
g1025
sg76
g636
sg259
g1029
sbsg76
(iPoly
Poly
p1033
(dp1034
g3
I00
sg4
I01
sg5
g6
(g7
g8
(F117.32075480586607
F292.3098605608115
tp1035
tp1036
Rp1037
sg12
(lp1038
g6
(g7
g8
(F149.7611331343218
F349.205644903746
tp1039
tp1040
Rp1041
ag1007
ag1010
ag6
(g7
g8
(F142.17132121349914
F265.7674233566727
tp1042
tp1043
Rp1044
ag6
(g7
g8
(F132.61611507656445
F265.7666458265361
tp1045
tp1046
Rp1047
ag6
(g7
g8
(F117.32075480586607
F250.4590905264455
tp1048
tp1049
Rp1050
ag6
(g7
g8
(F94.15780968591395
F250.45801658127098
tp1051
tp1052
Rp1053
ag6
(g7
g8
(F81.45672389823397
F263.1664990192243
tp1054
tp1055
Rp1056
ag6
(g7
g8
(F81.44105462619797
F285.78034893412973
tp1057
tp1058
Rp1059
ag6
(g7
g8
(F74.91367940193481
F292.3098605608115
tp1060
tp1061
Rp1062
ag6
(g7
g8
(F74.9051767633903
F334.8808598642998
tp1063
tp1064
Rp1065
ag501
ag498
ag6
(g7
g8
(F145.16553216801935
F353.8028355283287
tp1066
tp1067
Rp1068
asg56
I00
sg57
(lp1069
I01
aI01
aI01
aI01
aI01
aI01
aI00
aI00
aI00
aI00
aI01
aI01
aI01
aI01
asg59
(lp1070
(iPoly
Border
p1071
(dp1072
g63
I00
sg64
I4
sg65
(iPoly
Border
p1073
(dp1074
g63
I00
sg64
I4
sg65
(iPoly
Border
p1075
(dp1076
g63
I00
sg64
I2
sg65
(iPoly
Border
p1077
(dp1078
g63
I00
sg64
I4
sg65
(iPoly
Border
p1079
(dp1080
g63
I00
sg64
I4
sg65
(iPoly
Border
p1081
(dp1082
g63
I00
sg64
I2
sg65
g1071
sg76
g636
sg259
g1079
sbsg76
g478
sg259
g1077
sbsg76
g439
sg259
g1075
sbsg76
g421
sg259
g1073
sbsg76
(iPoly
Poly
p1083
(dp1084
g3
I00
sg4
I01
sg5
g6
(g7
g8
(F132.61611507656445
F223.9158757921701
tp1085
tp1086
Rp1087
sg12
(lp1088
g6
(g7
g8
(F174.91449288846206
F233.35291588110067
tp1089
tp1090
Rp1091
ag967
ag6
(g7
g8
(F184.36919049861092
F206.46553750608032
tp1092
tp1093
Rp1094
ag6
(g7
g8
(F143.29803209062158
F165.4137942196216
tp1095
tp1096
Rp1097
ag25
ag28
ag6
(g7
g8
(F73.05553734863538
F188.87304436554214
tp1098
tp1099
Rp1100
ag6
(g7
g8
(F70.87457838257289
F191.05355064874766
tp1101
tp1102
Rp1103
ag6
(g7
g8
(F70.90874357200667
F223.9158757921701
tp1104
tp1105
Rp1106
ag6
(g7
g8
(F94.16935474875268
F247.16149407168038
tp1107
tp1108
Rp1109
ag6
(g7
g8
(F94.17205021596621
F250.45801724153023
tp1110
tp1111
Rp1112
ag1050
ag1047
ag6
(g7
g8
(F142.16330783923436
F265.7674227046051
tp1113
tp1114
Rp1115
ag1016
asg56
I00
sg57
(lp1116
I01
aI01
aI01
aI01
aI01
aI01
aI00
aI00
aI00
aI00
aI01
aI01
aI01
aI01
aI01
asg59
(lp1117
(iPoly
Border
p1118
(dp1119
g63
I00
sg64
I3
sg65
(iPoly
Border
p1120
(dp1121
g63
I00
sg64
I2
sg65
(iPoly
Border
p1122
(dp1123
g63
I00
sg64
I4
sg65
(iPoly
Border
p1124
(dp1125
g63
I00
sg64
I2
sg65
(iPoly
Border
p1126
(dp1127
g63
I00
sg64
I4
sg65
(iPoly
Border
p1128
(dp1129
g63
I00
sg64
I4
sg65
(iPoly
Border
p1130
(dp1131
g63
I00
sg64
I3
sg65
g1118
sg76
g996
sg259
g1128
sbsg76
g1033
sg259
g1126
sbsg76
g421
sg259
g1124
sbsg76
g403
sg259
g1122
sbsg76
g1
sg259
g1120
sbsg76
g77
sg259
g1118
sbsg76
g944
sg259
g1130
sbag1120
ag1122
ag1124
ag1126
ag1128
ag1130
asbsg259
g1071
sbsg76
g996
sg259
g1081
sbag1073
ag1075
ag1077
ag1079
ag1081
asbsg259
g1027
sbsg76
g1083
sg259
g1025
sbsg76
g944
sg259
g1031
sbag1027
ag1029
ag1031
asbsg259
g990
sbsg76
g1083
sg259
g988
sbsg76
g77
sg259
g986
sbsg76
g133
sg259
g984
sbsg76
g195
sg259
g982
sbsg76
g903
sg259
g994
sbag984
ag986
ag988
ag990
ag992
ag994
asbsg259
g936
sbsg76
g636
sg259
g934
sbsg76
g866
sg259
g932
sbsg76
g735
sg259
g942
sbag934
ag936
ag938
ag940
ag942
asbsg259
g897
sbsg76
g735
sg259
g895
sbsg76
g702
sg259
g901
sbag897
ag899
ag901
asbsg259
g784
sbsg76
g903
sg259
g782
sbsg76
g254
sg259
g792
sbag784
ag786
ag788
ag790
ag792
asbsg63
I00
sg65
(iPoly
Border
p1132
(dp1133
g259
g729
sg260
(lp1134
g734
ag823
ag6
(g7
g8
(F423.7447368756694
F444.7391155824655
tp1135
tp1136
Rp1137
asg76
g794
sg63
I00
sg65
(iPoly
Border
p1138
(dp1139
g259
g1132
sg260
(lp1140
g1137
ag853
ag850
ag847
asg76
g839
sg63
I00
sg65
Nsbsbsbsbag729
ag1132
ag1138
asg5
g6
(g7
g8
(F388.66111538433177
F493.9833147835935
tp1141
tp1142
Rp1143
sg56
I00
sbsg63
I00
sg65
(iPoly
Border
p1144
(dp1145
g259
g705
sg260
(lp1146
g719
ag755
ag6
(g7
g8
(F325.652166145946
F395.64725106020586
tp1147
tp1148
Rp1149
asg76
g735
sg63
I00
sg65
(iPoly
Border
p1150
(dp1151
g259
g1144
sg260
(lp1152
g1149
ag880
ag877
ag6
(g7
g8
(F273.86902781918764
F390.4575727142163
tp1153
tp1154
Rp1155
asg76
g866
sg63
I00
sg65
(iPoly
Border
p1156
(dp1157
g259
g1150
sg260
(lp1158
g1155
ag6
(g7
g8
(F249.18133344270817
F415.12466642148536
tp1159
tp1160
Rp1161
asg76
g636
sg63
I00
sg65
(iPoly
Border
p1162
(dp1163
g259
g1156
sg260
(lp1164
g1161
ag6
(g7
g8
(F249.1959526158749
F441.0246378905601
tp1165
tp1166
Rp1167
ag6
(g7
g8
(F283.8771529924492
F475.6806376433365
tp1168
tp1169
Rp1170
ag6
(g7
g8
(F283.89321460597955
I512
tp1171
tp1172
Rp1173
asg76
g531
sg63
I00
sg65
Nsbsbsbsbsbag1144
ag1150
ag1156
ag1162
asg5
g6
(g7
g8
(F299.3300865811648
F441.0246378905601
tp1174
tp1175
Rp1176
sg56
I00
sbsg259
g698
sbsg76
g531
sg259
g696
sbsg76
g478
sg259
g694
sbsg76
g1033
sg259
g692
sbsg76
g996
sg259
g690
sbsg76
g944
sg259
g688
sbsg76
g903
sg259
g686
sbsg76
g866
sg259
g700
sbag688
ag690
ag692
ag694
ag696
ag698
ag700
asbsg63
I00
sg65
(iPoly
Border
p1177
(dp1178
g259
g624
sg260
(lp1179
g635
ag1167
ag1170
ag1173
asg76
g702
sg63
I00
sg65
Nsbsbsbsbsbag612
ag618
ag624
ag1177
asg5
g6
(g7
g8
(F233.74301902715928
F475.6806376433365
tp1180
tp1181
Rp1182
sg56
I00
sbsg259
g527
sbsg76
g567
sg259
g525
sbsg76
g457
sg259
g523
sbsg76
g439
sg259
g521
sbsg76
g1033
sg259
g519
sbsg76
g636
sg259
g529
sbag521
ag523
ag525
ag527
ag529
asbsg63
I00
sg65
(iPoly
Border
p1183
(dp1184
g259
g466
sg260
(lp1185
g477
ag596
ag599
ag602
asg76
g567
sg63
I00
sg65
Nsbsbsbag466
ag1183
asg5
g6
(g7
g8
(F58.12590158265644
F409.9077374538544
tp1186
tp1187
Rp1188
sg56
I00
sbsg63
I00
sg65
(iPoly
Border
p1189
(dp1190
g259
g442
sg260
(lp1191
g456
ag6
(g7
g8
(F74.90516863933904
F334.9215353533272
tp1192
tp1193
Rp1194
asg76
g478
sg63
I00
sg65
(iPoly
Border
p1195
(dp1196
g259
g1189
sg260
(lp1197
g1194
ag1062
ag1059
ag6
(g7
g8
(F81.45671168068446
F263.1841313527922
tp1198
tp1199
Rp1200
asg76
g1033
sg63
I00
sg65
(iPoly
Border
p1201
(dp1202
g259
g1195
sg260
(lp1203
g1200
ag435
ag432
ag429
asg76
g421
sg63
I00
sg65
Nsbsbsbsbag1189
ag1195
ag1201
asg5
g6
(g7
g8
(F39.033979222266666
F285.78034893412973
tp1204
tp1205
Rp1206
sg56
I00
sbsg63
I00
sg65
(iPoly
Border
p1207
(dp1208
g259
g424
sg260
(lp1209
g438
ag6
(g7
g8
(F94.17203857411961
F250.4437794066785
tp1210
tp1211
Rp1212
asg76
g1033
sg63
I00
sg65
(iPoly
Border
p1213
(dp1214
g259
g1207
sg260
(lp1215
g1212
ag1109
ag1106
ag6
(g7
g8
(F70.87454787846778
F191.02420979518038
tp1216
tp1217
Rp1218
asg76
g1083
sg63
I00
sg65
(iPoly
Border
p1219
(dp1220
g259
g1213
sg260
(lp1221
g1218
ag417
ag414
ag411
asg76
g403
sg63
I00
sg65
Nsbsbsbsbag1207
ag1213
ag1219
asg5
g6
(g7
g8
(F32.46198324419488
F247.16149407168038
tp1222
tp1223
Rp1224
sg56
I00
sbsg63
I00
sg65
(iPoly
Border
p1225
(dp1226
g259
g406
sg260
(lp1227
g420
ag6
(g7
g8
(F73.00534549555294
F188.9232258007342
tp1228
tp1229
Rp1230
asg76
g1083
sg63
I00
sg65
(iPoly
Border
p1231
(dp1232
g259
g1225
sg260
(lp1233
g1230
ag34
ag37
ag6
(g7
g8
(F82.45501599732852
F92.9098797622846
tp1234
tp1235
Rp1236
asg76
g1
sg63
I00
sg65
(iPoly
Border
p1237
(dp1238
g259
g1231
sg260
(lp1239
g1236
ag399
ag396
ag393
asg76
g385
sg63
I00
sg65
Nsbsbsbsbag1225
ag1231
ag1237
asg5
g6
(g7
g8
(F46.35552331069476
F120.97646983293708
tp1240
tp1241
Rp1242
sg56
I00
sbsg63
I00
sg65
(iPoly
Border
p1243
(dp1244
g259
g388
sg260
(lp1245
g402
ag6
(g7
g8
(F82.4722571700647
F92.88319556743846
tp1246
tp1247
Rp1248
asg76
g1
sg63
I00
sg65
(iPoly
Border
p1249
(dp1250
g259
g1243
sg260
(lp1251
g1248
ag378
ag381
ag384
asg76
g358
sg63
I00
sg65
Nsbsbsbag1243
ag1249
asg5
g6
(g7
g8
(F55.79019591870068
F55.394648190917096
tp1252
tp1253
Rp1254
sg56
I00
sbsg63
I00
sg65
Nsbsbsbag367
ag373
asg5
g6
(g7
g8
(F104.15055388905519
F50.39851332092886
tp1255
tp1256
Rp1257
sg56
I00
sbsg63
I00
sg65
(iPoly
Border
p1258
(dp1259
g259
g343
sg260
(lp1260
g357
ag6
(g7
g8
(F169.20425748422355
F90.19157596901789
tp1261
tp1262
Rp1263
asg76
g1
sg63
I00
sg65
(iPoly
Border
p1264
(dp1265
g259
g1258
sg260
(lp1266
g1263
ag100
ag97
ag6
(g7
g8
(F268.46254590734065
F99.59659248453443
tp1267
tp1268
Rp1269
asg76
g77
sg63
I00
sg65
(iPoly
Border
p1270
(dp1271
g259
g1264
sg260
(lp1272
g1269
ag6
(g7
g8
(F273.11496039672016
F94.94790347058984
tp1273
tp1274
Rp1275
asg76
(iPoly
Poly
p1276
(dp1277
g3
I01
sg4
I01
sg5
g6
(g7
g8
(F328.9255130155926
F161.01481380605713
tp1278
tp1279
Rp1280
sg12
(lp1281
g88
ag91
ag6
(g7
g8
(F268.5824109861506
F99.4768233890913
tp1282
tp1283
Rp1284
ag6
(g7
g8
(F273.0204733256211
F95.04231488005925
tp1285
tp1286
Rp1287
ag6
(g7
g8
(F318.52572212112386
F94.99664778030329
tp1288
tp1289
Rp1290
ag6
(g7
g8
(F328.9255130155926
F84.60532241175618
tp1291
tp1292
Rp1293
ag6
(g7
g8
(F339.7773912348283
F84.60075095616268
tp1294
tp1295
Rp1296
ag6
(g7
g8
(F339.7158785846456
F161.01481380605713
tp1297
tp1298
Rp1299
ag6
(g7
g8
(F339.68809252262105
F161.0426162425578
tp1300
tp1301
Rp1302
ag6
(g7
g8
(F339.6878720556099
F176.30907283635858
tp1303
tp1304
Rp1305
ag159
ag162
ag6
(g7
g8
(F263.7860289277524
F176.8992776805072
tp1306
tp1307
Rp1308
asg56
I00
sg57
(lp1309
I01
aI01
aI01
aI00
aI00
aI00
aI00
aI01
aI01
aI01
aI01
aI01
aI01
asg59
(lp1310
(iPoly
Border
p1311
(dp1312
g63
I00
sg64
I4
sg65
(iPoly
Border
p1313
(dp1314
g63
I00
sg64
I4
sg65
(iPoly
Border
p1315
(dp1316
g63
I00
sg64
I4
sg65
(iPoly
Border
p1317
(dp1318
g63
I00
sg64
I2
sg65
(iPoly
Border
p1319
(dp1320
g63
I00
sg64
I4
sg65
g1311
sg76
g77
sg259
g1317
sbsg76
g340
sg259
g1315
sbsg76
g322
sg259
g1313
sbsg76
(iPoly
Poly
p1321
(dp1322
g3
I00
sg4
I01
sg5
g6
(g7
g8
(F350.478458091674
F161.0426162425578
tp1323
tp1324
Rp1325
sg12
(lp1326
g6
(g7
g8
(F351.17209288796414
F187.10670849141928
tp1327
tp1328
Rp1329
ag6
(g7
g8
(F369.19338927209117
F169.10138944243698
tp1330
tp1331
Rp1332
ag6
(g7
g8
(F403.21995970118576
F169.0898291670208
tp1333
tp1334
Rp1335
ag6
(g7
g8
(F411.2661541837592
F161.0426162425578
tp1336
tp1337
Rp1338
ag6
(g7
g8
(F411.3095802982309
F124.31104371550383
tp1339
tp1340
Rp1341
ag6
(g7
g8
(F400.14082373231184
F124.30649712603343
tp1342
tp1343
Rp1344
ag6
(g7
g8
(F350.478458091674
F74.63738519130402
tp1345
tp1346
Rp1347
ag6
(g7
g8
(F349.6854883734087
F74.63667803529196
tp1348
tp1349
Rp1350
ag6
(g7
g8
(F339.7774390596596
F84.5413405803907
tp1351
tp1352
Rp1353
ag1299
ag1302
ag6
(g7
g8
(F339.6878719820452
F176.3141668992309
tp1354
tp1355
Rp1356
ag153
asg56
I00
sg57
(lp1357
I01
aI01
aI01
aI01
aI00
aI00
aI00
aI00
aI01
aI01
aI01
aI01
aI01
asg59
(lp1358
(iPoly
Border
p1359
(dp1360
g63
I00
sg64
I3
sg65
(iPoly
Border
p1361
(dp1362
g63
I00
sg64
I3
sg65
(iPoly
Border
p1363
(dp1364
g63
I00
sg64
I4
sg65
(iPoly
Border
p1365
(dp1366
g63
I00
sg64
I2
sg65
(iPoly
Border
p1367
(dp1368
g63
I00
sg64
I4
sg65
(iPoly
Border
p1369
(dp1370
g63
I00
sg64
I3
sg65
g1359
sg76
g133
sg259
g1367
sbsg76
g1276
sg259
g1365
sbsg76
g322
sg259
g1363
sbsg76
g304
sg259
g1361
sbsg76
(iPoly
Poly
p1371
(dp1372
g3
I00
sg4
I01
sg5
g6
(g7
g8
(F448.3730227246524
F184.72644117926032
tp1373
tp1374
Rp1375
sg12
(lp1376
g6
(g7
g8
(F500.42588695329994
F220.8953792539853
tp1377
tp1378
Rp1379
ag6
(g7
g8
(F500.40722569004765
F184.72644117926032
tp1380
tp1381
Rp1382
ag6
(g7
g8
(F452.5585901544978
F136.87857685821615
tp1383
tp1384
Rp1385
ag6
(g7
g8
(F452.5474789773542
F96.51370824289899
tp1386
tp1387
Rp1388
ag6
(g7
g8
(F451.7359475499102
F96.5136186552151
tp1389
tp1390
Rp1391
ag6
(g7
g8
(F448.3730227246524
F93.15058460252071
tp1392
tp1393
Rp1394
ag6
(g7
g8
(F442.43123754039436
F93.14600926455279
tp1395
tp1396
Rp1397
ag6
(g7
g8
(F411.3096447557284
F124.25652294447187
tp1398
tp1399
Rp1400
ag1338
ag6
(g7
g8
(F403.202664610936
F169.10712644638554
tp1401
tp1402
Rp1403
ag6
(g7
g8
(F403.215396503789
F184.72644117926032
tp1404
tp1405
Rp1406
ag6
(g7
g8
(F414.35101549295456
F195.85850152430456
tp1407
tp1408
Rp1409
ag6
(g7
g8
(F414.3748916274889
F239.64293785389202
tp1410
tp1411
Rp1412
ag6
(g7
g8
(F415.55051745497315
F240.81790845448398
tp1413
tp1414
Rp1415
ag6
(g7
g8
(F448.3730227246524
F240.78850540255985
tp1416
tp1417
Rp1418
ag6
(g7
g8
(F468.2356617684093
F220.9277741656373
tp1419
tp1420
Rp1421
asg56
I00
sg57
(lp1422
I00
aI00
aI00
aI00
aI00
aI00
aI00
aI01
aI01
aI01
aI01
aI01
aI01
aI00
aI00
aI00
asg59
(lp1423
(iPoly
Border
p1424
(dp1425
g63
I00
sg64
I4
sg65
(iPoly
Border
p1426
(dp1427
g63
I00
sg64
I4
sg65
(iPoly
Border
p1428
(dp1429
g63
I00
sg64
I2
sg65
(iPoly
Border
p1430
(dp1431
g63
I00
sg64
I3
sg65
(iPoly
Border
p1432
(dp1433
g63
I00
sg64
I4
sg65
(iPoly
Border
p1434
(dp1435
g63
I00
sg64
I2
sg65
(iPoly
Border
p1436
(dp1437
g63
I00
sg64
I4
sg65
g1424
sg76
g254
sg259
g1434
sbsg76
g195
sg259
g1432
sbsg76
(iPoly
Poly
p1438
(dp1439
g3
I00
sg4
I01
sg5
g6
(g7
g8
(F369.19338927209117
F195.85850152430456
tp1440
tp1441
Rp1442
sg12
(lp1443
g6
(g7
g8
(F414.37491180457477
F239.6799389157163
tp1444
tp1445
Rp1446
ag233
ag6
(g7
g8
(F347.4699236234463
F217.89653930589736
tp1447
tp1448
Rp1449
ag144
ag147
ag6
(g7
g8
(F351.18373165611774
F187.09508004197394
tp1450
tp1451
Rp1452
ag1332
ag6
(g7
g8
(F403.20265051606435
F169.08983504768833
tp1453
tp1454
Rp1455
ag1406
ag1409
asg56
I00
sg57
(lp1456
I01
aI01
aI01
aI01
aI01
aI01
aI01
aI01
aI01
aI01
asg59
(lp1457
(iPoly
Border
p1458
(dp1459
g63
I00
sg64
I3
sg65
(iPoly
Border
p1460
(dp1461
g63
I00
sg64
I4
sg65
(iPoly
Border
p1462
(dp1463
g63
I00
sg64
I3
sg65
(iPoly
Border
p1464
(dp1465
g63
I00
sg64
I4
sg65
g1458
sg76
g1371
sg259
g1462
sbsg76
g1321
sg259
g1460
sbsg76
g133
sg259
g1458
sbsg76
g195
sg259
g1464
sbag1460
ag1462
ag1464
asbsg259
g1430
sbsg76
g1321
sg259
g1428
sbsg76
g304
sg259
g1426
sbsg76
g286
sg259
g1424
sbsg76
g271
sg259
g1436
sbag1426
ag1428
ag1430
ag1432
ag1434
ag1436
asbsg259
g1359
sbsg76
g1438
sg259
g1369
sbag1361
ag1363
ag1365
ag1367
ag1369
asbsg259
g1311
sbsg76
g133
sg259
g1319
sbag1313
ag1315
ag1317
ag1319
asbsg63
I00
sg65
(iPoly
Border
p1466
(dp1467
g259
g1270
sg260
(lp1468
g1275
ag336
ag333
ag330
asg76
g322
sg63
I00
sg65
Nsbsbsbsbsbag1258
ag1264
ag1270
ag1466
asg5
g6
(g7
g8
(F212.70299405875159
F33.478722218248265
tp1469
tp1470
Rp1471
sg56
I00
sbsg63
I00
sg65
(iPoly
Border
p1472
(dp1473
g259
g325
sg260
(lp1474
g339
ag1290
ag1293
ag6
(g7
g8
(F339.7179833346005
F84.60077598229846
tp1475
tp1476
Rp1477
asg76
g1276
sg63
I00
sg65
(iPoly
Border
p1478
(dp1479
g259
g1472
sg260
(lp1480
g1477
ag6
(g7
g8
(F349.6600125318645
F74.66214516868601
tp1481
tp1482
Rp1483
asg76
g1321
sg63
I00
sg65
(iPoly
Border
p1484
(dp1485
g259
g1478
sg260
(lp1486
g1483
ag318
ag315
ag312
asg76
g304
sg63
I00
sg65
Nsbsbsbsbag1472
ag1478
ag1484
asg5
g6
(g7
g8
(F318.52572212112386
F18.587156386002327
tp1487
tp1488
Rp1489
sg56
I00
sbsg63
I00
sg65
(iPoly
Border
p1490
(dp1491
g259
g307
sg260
(lp1492
g321
ag1347
ag1344
ag6
(g7
g8
(F411.2551267436152
F124.31102154849208
tp1493
tp1494
Rp1495
asg76
g1321
sg63
I00
sg65
(iPoly
Border
p1496
(dp1497
g259
g1490
sg260
(lp1498
g1495
ag6
(g7
g8
(F442.48499523084445
F93.09227071152567
tp1499
tp1500
Rp1501
asg76
g1371
sg63
I00
sg65
(iPoly
Border
p1502
(dp1503
g259
g1496
sg260
(lp1504
g1501
ag300
ag297
ag294
asg76
g286
sg63
I00
sg65
Nsbsbsbsbag1490
ag1496
ag1502
asg5
g6
(g7
g8
(F400.14082373231184
F37.90126607477965
tp1505
tp1506
Rp1507
sg56
I00
sbsg63
I00
sg65
(iPoly
Border
p1508
(dp1509
g259
g289
sg260
(lp1510
g303
ag1394
ag1391
ag6
(g7
g8
(F452.540865476674
F96.5137075128124
tp1511
tp1512
Rp1513
asg76
g1371
sg63
I00
sg65
(iPoly
Border
p1514
(dp1515
g259
g1508
sg260
(lp1516
g1513
ag282
ag279
asg76
g271
sg63
I00
sg65
Nsbsbsbag1508
ag1514
asg5
g6
(g7
g8
(F451.7359475499102
F4.937762078475474
tp1517
tp1518
Rp1519
sg56
I00
sbsg63
I00
sg65
(iPoly
Border
p1520
(dp1521
g259
g274
sg260
(lp1522
g285
ag1385
ag1382
ag6
(g7
g8
(F500.42591312941835
F220.94611335448016
tp1523
tp1524
Rp1525
asg76
g1371
sg63
I00
sg65
(iPoly
Border
p1526
(dp1527
g259
g1520
sg260
(lp1528
g1525
ag267
ag264
asg76
g254
sg63
I00
sg65
Nsbsbsbag1520
ag1526
asg5
g6
(g7
g8
(F504.59279311989303
F136.87857685821615
tp1529
tp1530
Rp1531
sg56
I00
sbsg63
I00
sg65
(iPoly
Border
p1532
(dp1533
g259
g257
sg260
(lp1534
g270
ag1421
ag1418
ag6
(g7
g8
(F415.5127153743428
F240.8179423183384
tp1535
tp1536
Rp1537
asg76
g1371
sg63
I00
sg65
(iPoly
Border
p1538
(dp1539
g259
g1532
sg260
(lp1540
g1537
ag203
ag206
ag6
(g7
g8
(F396.51943798359054
F280.7890569267408
tp1541
tp1542
Rp1543
asg76
g195
sg63
I00
sg65
(iPoly
Border
p1544
(dp1545
g259
g1538
sg260
(lp1546
g1543
ag929
ag6
(g7
g8
(F407.74926347247117
F311.27551970618543
tp1547
tp1548
Rp1549
asg76
g903
sg63
I00
sg65
(iPoly
Border
p1550
(dp1551
g259
g1544
sg260
(lp1552
g1549
ag6
(g7
g8
(F430.05989611975195
F333.569936687486
tp1553
tp1554
Rp1555
asg76
g735
sg63
I00
sg65
(iPoly
Border
p1556
(dp1557
g259
g1550
sg260
(lp1558
g1555
ag808
ag805
ag802
asg76
g794
sg63
I00
sg65
Nsbsbsbsbsbsbag1532
ag1538
ag1544
ag1550
ag1556
asg5
g6
(g7
g8
(F468.2356617684093
F276.98983838893685
tp1559
tp1560
Rp1561
sg56
I00
sbsg259
g250
sbsg76
g903
sg259
g248
sbsg76
g944
sg259
g246
sbsg76
g133
sg259
g244
sbsg76
g1438
sg259
g242
sbsg76
g1371
sg259
g252
sbag244
ag246
ag248
ag250
ag252
asbsg259
g191
sbsg76
g944
sg259
g189
sbsg76
g77
sg259
g187
sbsg76
g1276
sg259
g185
sbsg76
g1321
sg259
g183
sbsg76
g1438
sg259
g193
sbag185
ag187
ag189
ag191
ag193
asbsg259
g129
sbsg76
g944
sg259
g127
sbsg76
g1083
sg259
g125
sbsg76
g1
sg259
g123
sbsg76
g340
sg259
g121
sbsg76
g1276
sg259
g131
sbag123
ag125
ag127
ag129
ag131
asbsg259
g72
sbsg76
g1083
sg259
g70
sbsg76
g403
sg259
g68
sbsg76
g385
sg259
g66
sbsg76
g358
sg259
g61
sbsg76
g340
sg259
g74
sbag66
ag68
ag70
ag72
ag74
asbag1083
ag1033
ag478
ag77
ag944
ag996
ag636
ag1276
ag133
ag903
ag866
ag1321
ag1438
ag195
ag735
ag1371
a.