(lp0
(iPoly
Poly
p1
(dp2
S'reversed'
p3
I01
sS'isClosed'
p4
I01
sS'centroid'
p5
ccopy_reg
_reconstructor
p6
(cVec2
Vec2
p7
c__builtin__
tuple
p8
(F97.98022869435685
F202.96338176788873
tp9
tp10
Rp11
sS'verts'
p12
(lp13
g6
(g7
g8
(F152.93994390927514
F175.41407889526508
tp14
tp15
Rp16
ag6
(g7
g8
(F142.02932659600322
F164.51263751831482
tp17
tp18
Rp19
ag6
(g7
g8
(F97.98022869435685
F164.5422157223895
tp20
tp21
Rp22
ag6
(g7
g8
(F91.62221603919743
F170.89826386113248
tp23
tp24
Rp25
ag6
(g7
g8
(F91.61891952860097
F180.29569264248946
tp26
tp27
Rp28
ag6
(g7
g8
(F68.95423523906516
F202.96338176788873
tp29
tp30
Rp31
ag6
(g7
g8
(F68.95200270030371
F240.78290566564658
tp32
tp33
Rp34
ag6
(g7
g8
(F94.2624815656635
F266.07896686686456
tp35
tp36
Rp37
ag6
(g7
g8
(F94.26353772130814
F271.732531145971
tp38
tp39
Rp40
ag6
(g7
g8
(F97.98022869435685
F271.7290139732023
tp41
tp42
Rp43
ag6
(g7
g8
(F119.88702503808817
F249.83693171163407
tp44
tp45
Rp46
ag6
(g7
g8
(F131.70228969413688
F249.8233762085664
tp47
tp48
Rp49
ag6
(g7
g8
(F131.71576585244696
F224.1616179303317
tp50
tp51
Rp52
ag6
(g7
g8
(F152.9121228749847
F202.96338176788873
tp53
tp54
Rp55
asS'wtf'
p56
I00
sS'others'
p57
(lp58
I01
aI00
aI00
aI00
aI00
aI00
aI00
aI00
aI01
aI01
aI01
aI01
aI01
aI01
asS'borders'
p59
(lp60
(iPoly
Border
p61
(dp62
S'flipped'
p63
I00
sS'nVerts'
p64
I2
sS'next'
p65
(iPoly
Border
p66
(dp67
g63
I00
sg64
I3
sg65
(iPoly
Border
p68
(dp69
g63
I00
sg64
I4
sg65
(iPoly
Border
p70
(dp71
g63
I00
sg64
I3
sg65
(iPoly
Border
p72
(dp73
g63
I00
sg64
I4
sg65
(iPoly
Border
p74
(dp75
g63
I00
sg64
I4
sg65
g61
sS'other'
p76
(iPoly
Poly
p77
(dp78
g3
I00
sg4
I01
sg5
g6
(g7
g8
(F186.64766003307477
F224.1616179303317
tp79
tp80
Rp81
sg12
(lp82
g6
(g7
g8
(F258.252049400839
F261.88777671224096
tp83
tp84
Rp85
ag6
(g7
g8
(F258.2480794331339
F224.1616179303317
tp86
tp87
Rp88
ag6
(g7
g8
(F256.39367316266447
F222.3080987031639
tp89
tp90
Rp91
ag6
(g7
g8
(F256.3590788424519
F191.59378537607026
tp92
tp93
Rp94
ag6
(g7
g8
(F236.82739438130235
F172.05016828002618
tp95
tp96
Rp97
ag6
(g7
g8
(F186.64766003307477
F172.09265763074262
tp98
tp99
Rp100
ag6
(g7
g8
(F183.3415020215979
F175.39623287096188
tp101
tp102
Rp103
ag6
(g7
g8
(F152.93992380712837
F175.4339847019535
tp104
tp105
Rp106
ag55
ag52
ag6
(g7
g8
(F131.7023031782323
F249.79769933619693
tp107
tp108
Rp109
ag6
(g7
g8
(F134.4527135911553
F252.55057793729614
tp110
tp111
Rp112
ag6
(g7
g8
(F171.86145575890052
F252.56872931299628
tp113
tp114
Rp115
ag6
(g7
g8
(F186.64766003307477
F267.36225853051826
tp116
tp117
Rp118
ag6
(g7
g8
(F252.75973498407652
F267.38410520803643
tp119
tp120
Rp121
asg56
I00
sg57
(lp122
I01
aI01
aI01
aI01
aI01
aI01
aI01
aI01
aI01
aI01
aI01
aI01
aI01
aI01
aI01
asg59
(lp123
(iPoly
Border
p124
(dp125
g63
I00
sg64
I4
sg65
(iPoly
Border
p126
(dp127
g63
I00
sg64
I2
sg65
(iPoly
Border
p128
(dp129
g63
I00
sg64
I4
sg65
(iPoly
Border
p130
(dp131
g63
I00
sg64
I4
sg65
(iPoly
Border
p132
(dp133
g63
I00
sg64
I2
sg65
(iPoly
Border
p134
(dp135
g63
I00
sg64
I4
sg65
(iPoly
Border
p136
(dp137
g63
I00
sg64
I2
sg65
g124
sg76
(iPoly
Poly
p138
(dp139
g3
I00
sg4
I01
sg5
g6
(g7
g8
(F309.5698339025567
F319.9153669030826
tp140
tp141
Rp142
sg12
(lp143
g6
(g7
g8
(F338.37532923923385
F358.38575009128084
tp144
tp145
Rp146
ag6
(g7
g8
(F338.3306039663043
F319.9153669030826
tp147
tp148
Rp149
ag6
(g7
g8
(F322.7834738070486
F304.37739641123693
tp150
tp151
Rp152
ag6
(g7
g8
(F322.7545657360713
F275.08452937957804
tp153
tp154
Rp155
ag6
(g7
g8
(F309.5698339025567
F261.8991534341064
tp156
tp157
Rp158
ag6
(g7
g8
(F258.25549717792023
F261.88432641533865
tp159
tp160
Rp161
ag6
(g7
g8
(F252.7891023737376
F267.3547163551061
tp162
tp163
Rp164
ag6
(g7
g8
(F252.78302405558543
F295.7693699131829
tp165
tp166
Rp167
ag6
(g7
g8
(F228.64826560587176
F319.9153669030826
tp168
tp169
Rp170
ag6
(g7
g8
(F228.64506235919032
F324.9358189826367
tp171
tp172
Rp173
ag6
(g7
g8
(F252.3527099760489
F348.62532890668007
tp174
tp175
Rp176
ag6
(g7
g8
(F293.39420721643455
F348.6710123445065
tp177
tp178
Rp179
ag6
(g7
g8
(F309.5698339025567
F364.8553389826281
tp180
tp181
Rp182
ag6
(g7
g8
(F331.89368014578764
F364.8633200629592
tp183
tp184
Rp185
asg56
I00
sg57
(lp186
I01
aI01
aI01
aI01
aI01
aI01
aI01
aI01
aI01
aI01
aI01
aI01
aI01
aI01
asg59
(lp187
(iPoly
Border
p188
(dp189
g63
I00
sg64
I4
sg65
(iPoly
Border
p190
(dp191
g63
I00
sg64
I3
sg65
(iPoly
Border
p192
(dp193
g63
I00
sg64
I2
sg65
(iPoly
Border
p194
(dp195
g63
I00
sg64
I4
sg65
(iPoly
Border
p196
(dp197
g63
I00
sg64
I2
sg65
(iPoly
Border
p198
(dp199
g63
I00
sg64
I4
sg65
(iPoly
Border
p200
(dp201
g63
I00
sg64
I2
sg65
g188
sg76
(iPoly
Poly
p202
(dp203
g3
I00
sg4
I01
sg5
g6
(g7
g8
(F358.25546729464344
F405.77587353047454
tp204
tp205
Rp206
sg12
(lp207
g6
(g7
g8
(F423.6655571553782
F422.68923923995067
tp208
tp209
Rp210
ag6
(g7
g8
(F366.7438380995553
F422.69202058480676
tp211
tp212
Rp213
ag6
(g7
g8
(F358.25546729464344
F431.17906970660664
tp214
tp215
Rp216
ag6
(g7
g8
(F326.5132976052343
F431.18347296309474
tp217
tp218
Rp219
ag6
(g7
g8
(F324.61068022288276
F429.27972498498593
tp220
tp221
Rp222
ag6
(g7
g8
(F319.72845347320236
F429.27662428870735
tp223
tp224
Rp225
ag6
(g7
g8
(F319.7463479192954
F405.77587353047454
tp226
tp227
Rp228
ag6
(g7
g8
(F331.90332659178273
F393.6109844240519
tp229
tp230
Rp231
ag6
(g7
g8
(F331.90538986627934
F364.851617711792
tp232
tp233
Rp234
ag6
(g7
g8
(F338.31727640108556
F358.44376639480777
tp235
tp236
Rp237
ag6
(g7
g8
(F351.5442438707962
F358.430716917027
tp238
tp239
Rp240
ag6
(g7
g8
(F358.25546729464344
F351.7225530246845
tp241
tp242
Rp243
ag6
(g7
g8
(F397.15282088095404
F351.6937714691057
tp244
tp245
Rp246
ag6
(g7
g8
(F397.15788329761017
F379.28508613837704
tp247
tp248
Rp249
ag6
(g7
g8
(F423.6586111866838
F405.77587353047454
tp250
tp251
Rp252
asg56
I00
sg57
(lp253
I00
aI00
aI00
aI00
aI00
aI01
aI01
aI01
aI01
aI01
aI01
aI01
aI00
aI00
aI00
asg59
(lp254
(iPoly
Border
p255
(dp256
g63
I00
sg64
I4
sg65
(iPoly
Border
p257
(dp258
g63
I00
sg64
I3
sg65
(iPoly
Border
p259
(dp260
g63
I00
sg64
I4
sg65
(iPoly
Border
p261
(dp262
g63
I00
sg64
I2
sg65
(iPoly
Border
p263
(dp264
g63
I00
sg64
I4
sg65
(iPoly
Border
p265
(dp266
g63
I00
sg64
I4
sg65
g255
sg76
(iPoly
Poly
p267
(dp268
g4
I00
sg59
(lp269
(iPoly
Border
p270
(dp271
S'prev'
p272
NsS'line'
p273
(lp274
g6
(g7
g8
(I512
F343.0073702677952
tp275
tp276
Rp277
ag6
(g7
g8
(F476.42024102953087
F342.97109596764074
tp278
tp279
Rp280
ag6
(g7
g8
(F462.56102718965053
F329.10774811811336
tp281
tp282
Rp283
ag6
(g7
g8
(F419.79057087807803
F329.09110817087617
tp284
tp285
Rp286
asg76
(iPoly
Poly
p287
(dp288
g4
I00
sg59
(lp289
(iPoly
Border
p290
(dp291
g272
Nsg273
(lp292
g6
(g7
g8
(I512
F240.69723009413352
tp293
tp294
Rp295
ag6
(g7
g8
(F476.42024102953087
F240.7137900737661
tp296
tp297
Rp298
ag6
(g7
g8
(F473.1171750909735
F244.01546723158785
tp299
tp300
Rp301
ag6
(g7
g8
(F452.82701020578435
F244.03755961572745
tp302
tp303
Rp304
asg76
(iPoly
Poly
p305
(dp306
g4
I00
sg59
(lp307
(iPoly
Border
p308
(dp309
g272
Nsg273
(lp310
g6
(g7
g8
(I512
F174.62291882678974
tp311
tp312
Rp313
ag6
(g7
g8
(F478.94135668039564
F174.60184180862652
tp314
tp315
Rp316
ag6
(g7
g8
(F473.1171750909735
F168.77527645250947
tp317
tp318
Rp319
ag6
(g7
g8
(F442.4742502973832
F168.73992148688174
tp320
tp321
Rp322
asg76
(iPoly
Poly
p323
(dp324
g4
I00
sg59
(lp325
(iPoly
Border
p326
(dp327
g272
Nsg273
(lp328
g6
(g7
g8
(I512
F117.61973823709779
tp329
tp330
Rp331
ag6
(g7
g8
(F487.69724889677934
F117.60625164843049
tp332
tp333
Rp334
ag6
(g7
g8
(F478.94135668039564
F108.84544679927336
tp335
tp336
Rp337
ag6
(g7
g8
(F441.79958536001476
F108.83830675651478
tp338
tp339
Rp340
asg76
(iPoly
Poly
p341
(dp342
g4
I00
sg59
(lp343
(iPoly
Border
p344
(dp345
g272
Nsg273
(lp346
g6
(g7
g8
(F459.17302253397185
I-512
tp347
tp348
Rp349
ag6
(g7
g8
(F459.0536180435214
F35.72615062736396
tp350
tp351
Rp352
ag6
(g7
g8
(F419.78335896045604
F75.01007954454467
tp353
tp354
Rp355
ag6
(g7
g8
(F419.7833408813447
F75.17944836893943
tp356
tp357
Rp358
asg76
(iPoly
Poly
p359
(dp360
g4
I00
sg59
(lp361
(iPoly
Border
p362
(dp363
g272
Nsg273
(lp364
g6
(g7
g8
(F349.78170666246854
I-512
tp365
tp366
Rp367
ag6
(g7
g8
(F349.96646340669486
F35.72615062736396
tp368
tp369
Rp370
ag6
(g7
g8
(F359.673339620819
F45.42460699414932
tp371
tp372
Rp373
ag6
(g7
g8
(F359.6744811614316
F57.73233100125398
tp374
tp375
Rp376
asg76
(iPoly
Poly
p377
(dp378
g4
I00
sg59
(lp379
(iPoly
Border
p380
(dp381
g272
Nsg273
(lp382
g6
(g7
g8
(F273.55513609711807
I-512
tp383
tp384
Rp385
ag6
(g7
g8
(F273.0727418399787
F15.336675975887125
tp386
tp387
Rp388
ag6
(g7
g8
(F265.4779991261509
F22.934683743793947
tp389
tp390
Rp391
asg76
(iPoly
Poly
p392
(dp393
g4
I00
sg59
(lp394
(iPoly
Border
p395
(dp396
g272
Nsg273
(lp397
g6
(g7
g8
(F144.29079220115892
I-512
tp398
tp399
Rp400
ag6
(g7
g8
(F144.16418587999704
F14.288363275290317
tp401
tp402
Rp403
ag6
(g7
g8
(F143.11630831730935
F15.336675975887125
tp404
tp405
Rp406
ag6
(g7
g8
(F143.09195351510851
F62.179178085943704
tp407
tp408
Rp409
asg76
(iPoly
Poly
p410
(dp411
g4
I00
sg59
(lp412
(iPoly
Border
p413
(dp414
g272
Nsg273
(lp415
g6
(g7
g8
(F59.833372890282774
I-512
tp416
tp417
Rp418
ag6
(g7
g8
(F59.74564804287493
F2.2848303712793876
tp419
tp420
Rp421
ag6
(g7
g8
(F47.74517414737563
F14.288363275290317
tp422
tp423
Rp424
ag6
(g7
g8
(F47.67960664223703
F70.31648189332421
tp425
tp426
Rp427
asg76
(iPoly
Poly
p428
(dp429
g4
I00
sg59
(lp430
(iPoly
Border
p431
(dp432
g272
Nsg273
(lp433
g6
(g7
g8
(I-512
F100.40214246559016
tp434
tp435
Rp436
ag6
(g7
g8
(F17.780735271236523
F100.25845462673067
tp437
tp438
Rp439
ag6
(g7
g8
(F47.679528370263604
F70.38336611291685
tp440
tp441
Rp442
asg76
(iPoly
Poly
p443
(dp444
g4
I00
sg59
(lp445
(iPoly
Border
p446
(dp447
g272
Nsg273
(lp448
g436
ag439
ag6
(g7
g8
(F47.746455692931065
F70.31649185207091
tp449
tp450
Rp451
asg76
g428
sg63
I00
sg65
(iPoly
Border
p452
(dp453
g272
g446
sg273
(lp454
g451
ag6
(g7
g8
(F86.9466624880004
F70.3223316497326
tp455
tp456
Rp457
ag6
(g7
g8
(F89.71008691901403
F73.08701993973723
tp458
tp459
Rp460
ag6
(g7
g8
(F132.2397536478803
F73.12271390143378
tp461
tp462
Rp463
asg76
g410
sg63
I00
sg65
(iPoly
Border
p464
(dp465
g272
g452
sg273
(lp466
g463
ag6
(g7
g8
(F132.24605107388908
F123.32727257137287
tp467
tp468
Rp469
ag6
(g7
g8
(F138.0421134357092
F129.12098831417953
tp470
tp471
Rp472
ag6
(g7
g8
(F138.05734096464613
F144.47015612219613
tp473
tp474
Rp475
asg76
(iPoly
Poly
p476
(dp477
g3
I00
sg4
I01
sg5
g6
(g7
g8
(F183.3415020215979
F123.32727257137287
tp478
tp479
Rp480
sg12
(lp481
g6
(g7
g8
(F236.94047138183325
F172.05007253284066
tp482
tp483
Rp484
ag100
ag103
ag6
(g7
g8
(F152.95984171671105
F175.4339599684495
tp485
tp486
Rp487
ag6
(g7
g8
(F142.0612448293498
F164.54452890811365
tp488
tp489
Rp490
ag6
(g7
g8
(F142.05598406977992
F148.439880273464
tp491
tp492
Rp493
ag6
(g7
g8
(F138.05731277738195
F144.44174369562063
tp494
tp495
Rp496
ag472
ag469
ag6
(g7
g8
(F132.23974952325645
F73.08983143170545
tp497
tp498
Rp499
ag6
(g7
g8
(F143.160615669183
F62.179237413742136
tp500
tp501
Rp502
ag6
(g7
g8
(F183.3415020215979
F62.21395586320694
tp503
tp504
Rp505
ag6
(g7
g8
(F197.57040727829235
F76.44999268405307
tp506
tp507
Rp508
ag6
(g7
g8
(F206.2269489639574
F76.45978481558308
tp509
tp510
Rp511
ag6
(g7
g8
(F206.2397259288563
F92.69719189110478
tp512
tp513
Rp514
ag6
(g7
g8
(F236.88401078736374
F123.32727257137287
tp515
tp516
Rp517
asg56
I00
sg57
(lp518
I01
aI01
aI01
aI01
aI00
aI00
aI00
aI00
aI00
aI00
aI00
aI00
aI00
aI01
aI01
aI01
asg59
(lp519
(iPoly
Border
p520
(dp521
g63
I00
sg64
I4
sg65
(iPoly
Border
p522
(dp523
g63
I00
sg64
I2
sg65
(iPoly
Border
p524
(dp525
g63
I00
sg64
I3
sg65
(iPoly
Border
p526
(dp527
g63
I00
sg64
I4
sg65
(iPoly
Border
p528
(dp529
g63
I00
sg64
I2
sg65
(iPoly
Border
p530
(dp531
g63
I00
sg64
I4
sg65
(iPoly
Border
p532
(dp533
g63
I00
sg64
I4
sg65
g520
sg76
(iPoly
Poly
p534
(dp535
g3
I01
sg4
I01
sg5
g6
(g7
g8
(F259.7822346946221
F92.69719189110478
tp536
tp537
Rp538
sg12
(lp539
g6
(g7
g8
(F312.78386370951455
F138.62204991865218
tp540
tp541
Rp542
ag6
(g7
g8
(F312.780901251564
F92.69719189110478
tp543
tp544
Rp545
ag6
(g7
g8
(F265.50140836337397
F45.42460699414932
tp546
tp547
Rp548
ag6
(g7
g8
(F265.4779960075514
F22.93168761609414
tp549
tp550
Rp551
ag6
(g7
g8
(F259.7822346946221
F22.937827662513822
tp552
tp553
Rp554
ag6
(g7
g8
(F206.2269388793135
F76.44696890278433
tp555
tp556
Rp557
ag514
ag517
ag6
(g7
g8
(F236.94060276022935
F172.1634458221764
tp558
tp559
Rp560
ag6
(g7
g8
(F256.34945270973543
F191.58415336239008
tp561
tp562
Rp563
ag6
(g7
g8
(F259.7822346946221
F191.58131089068758
tp564
tp565
Rp566
asg56
I00
sg57
(lp567
I00
aI00
aI00
aI00
aI00
aI01
aI01
aI01
aI01
aI01
aI01
asg59
(lp568
(iPoly
Border
p569
(dp570
g63
I00
sg64
I4
sg65
(iPoly
Border
p571
(dp572
g63
I00
sg64
I3
sg65
(iPoly
Border
p573
(dp574
g63
I00
sg64
I4
sg65
(iPoly
Border
p575
(dp576
g63
I00
sg64
I2
sg65
(iPoly
Border
p577
(dp578
g63
I00
sg64
I3
sg65
g569
sg76
(iPoly
Poly
p579
(dp580
g3
I01
sg4
I01
sg5
g6
(g7
g8
(F327.99409256272367
F222.3080987031639
tp581
tp582
Rp583
sg12
(lp584
g6
(g7
g8
(F385.12268381346377
F251.53688439918722
tp585
tp586
Rp587
ag6
(g7
g8
(F385.11541267862333
F222.3080987031639
tp588
tp589
Rp590
ag6
(g7
g8
(F365.09372897094465
F202.29980364880393
tp591
tp592
Rp593
ag6
(g7
g8
(F365.08304734852555
F173.9789073072381
tp594
tp595
Rp596
ag6
(g7
g8
(F327.99409256272367
F136.8641356637804
tp597
tp598
Rp599
ag6
(g7
g8
(F320.25182716919585
F136.8607659264149
tp600
tp601
Rp602
ag6
(g7
g8
(F318.5000749203159
F138.61202486413217
tp603
tp604
Rp605
ag6
(g7
g8
(F312.7872268320758
F138.61868948447852
tp606
tp607
Rp608
ag566
ag6
(g7
g8
(F256.35906798469983
F191.58414540058325
tp609
tp610
Rp611
ag91
ag88
ag6
(g7
g8
(F258.2520490376554
F261.8843254190159
tp612
tp613
Rp614
ag158
ag6
(g7
g8
(F322.78889345159473
F275.1188587721088
tp615
tp616
Rp617
ag6
(g7
g8
(F327.99409256272367
F275.1156323142397
tp618
tp619
Rp620
ag6
(g7
g8
(F351.5442438707962
F251.56986280016108
tp621
tp622
Rp623
asg56
I00
sg57
(lp624
I01
aI01
aI01
aI01
aI01
aI00
aI00
aI01
aI01
aI01
aI01
aI01
aI01
aI01
aI01
aI01
aI01
asg59
(lp625
(iPoly
Border
p626
(dp627
g63
I00
sg64
I4
sg65
(iPoly
Border
p628
(dp629
g63
I00
sg64
I3
sg65
(iPoly
Border
p630
(dp631
g63
I00
sg64
I3
sg65
(iPoly
Border
p632
(dp633
g63
I00
sg64
I3
sg65
(iPoly
Border
p634
(dp635
g63
I00
sg64
I4
sg65
(iPoly
Border
p636
(dp637
g63
I00
sg64
I3
sg65
(iPoly
Border
p638
(dp639
g63
I00
sg64
I4
sg65
g626
sg76
(iPoly
Poly
p640
(dp641
g3
I01
sg4
I01
sg5
g6
(g7
g8
(F351.5442438707962
F304.37739641123693
tp642
tp643
Rp644
sg12
(lp645
g6
(g7
g8
(F419.7851064686985
F329.09657352306465
tp646
tp647
Rp648
ag6
(g7
g8
(F419.77803302866465
F304.37739641123693
tp649
tp650
Rp651
ag6
(g7
g8
(F408.18645187166237
F292.7937579473771
tp652
tp653
Rp654
ag6
(g7
g8
(F408.1823493104954
F274.6520865573632
tp655
tp656
Rp657
ag6
(g7
g8
(F385.078885431556
F251.53692741490212
tp658
tp659
Rp660
ag623
ag620
ag6
(g7
g8
(F322.754599635485
F275.11888002923087
tp661
tp662
Rp663
ag152
ag149
ag6
(g7
g8
(F338.37539662173003
F358.4437090544892
tp664
tp665
Rp666
ag240
ag243
ag6
(g7
g8
(F397.19183555010704
F351.6937426007441
tp667
tp668
Rp669
asg56
I00
sg57
(lp670
I00
aI00
aI00
aI01
aI01
aI01
aI01
aI01
aI01
aI01
aI01
aI01
aI01
aI00
asg59
(lp671
(iPoly
Border
p672
(dp673
g63
I00
sg64
I4
sg65
(iPoly
Border
p674
(dp675
g63
I00
sg64
I2
sg65
(iPoly
Border
p676
(dp677
g63
I00
sg64
I4
sg65
(iPoly
Border
p678
(dp679
g63
I00
sg64
I4
sg65
(iPoly
Border
p680
(dp681
g63
I00
sg64
I4
sg65
(iPoly
Border
p682
(dp683
g63
I00
sg64
I2
sg65
g672
sg76
g267
sg272
g680
sbsg76
g202
sg272
g678
sbsg76
g138
sg272
g676
sbsg76
g579
sg272
g674
sbsg76
(iPoly
Poly
p684
(dp685
g3
I01
sg4
I01
sg5
g6
(g7
g8
(F422.2150490868444
F202.29980364880393
tp686
tp687
Rp688
sg12
(lp689
g6
(g7
g8
(F452.8986608042349
F243.96591195661057
tp690
tp691
Rp692
ag6
(g7
g8
(F452.8533235200864
F202.29980364880393
tp693
tp694
Rp695
ag6
(g7
g8
(F442.47890065773146
F191.93549935797688
tp696
tp697
Rp698
ag6
(g7
g8
(F442.47425585362623
F168.76763552588014
tp699
tp700
Rp701
ag6
(g7
g8
(F425.146376258083
F151.44161890315917
tp702
tp703
Rp704
ag6
(g7
g8
(F425.1189232409744
F125.5176328923822
tp705
tp706
Rp707
ag6
(g7
g8
(F422.2150490868444
F125.51988229858438
tp708
tp709
Rp710
ag6
(g7
g8
(F373.7306336946011
F173.96847137092607
tp711
tp712
Rp713
ag6
(g7
g8
(F365.0830452989201
F173.9734730518628
tp714
tp715
Rp716
ag593
ag590
ag6
(g7
g8
(F385.12269472795504
F251.5807588881171
tp717
tp718
Rp719
ag6
(g7
g8
(F408.1927296275557
F274.6624721290703
tp720
tp721
Rp722
ag6
(g7
g8
(F422.2150490868444
F274.6482649354135
tp723
tp724
Rp725
asg56
I00
sg57
(lp726
I00
aI00
aI00
aI00
aI00
aI01
aI01
aI01
aI01
aI01
aI01
aI01
aI00
aI00
asg59
(lp727
(iPoly
Border
p728
(dp729
g63
I00
sg64
I4
sg65
(iPoly
Border
p730
(dp731
g63
I00
sg64
I3
sg65
(iPoly
Border
p732
(dp733
g63
I00
sg64
I4
sg65
(iPoly
Border
p734
(dp735
g63
I00
sg64
I4
sg65
(iPoly
Border
p736
(dp737
g63
I00
sg64
I2
sg65
(iPoly
Border
p738
(dp739
g63
I00
sg64
I3
sg65
g728
sg76
g287
sg272
g736
sbsg76
g640
sg272
g734
sbsg76
g579
sg272
g732
sbsg76
(iPoly
Poly
p740
(dp741
g3
I01
sg4
I01
sg5
g6
(g7
g8
(F373.7306336946011
F97.18855002070653
tp742
tp743
Rp744
sg12
(lp745
g6
(g7
g8
(F441.82769437899447
F108.81017376583065
tp746
tp747
Rp748
ag6
(g7
g8
(F441.8140770204481
F97.18855002070653
tp749
tp750
Rp751
ag6
(g7
g8
(F419.7832802233508
F75.17938777051253
tp752
tp753
Rp754
ag6
(g7
g8
(F391.139728107198
F75.1697537957505
tp755
tp756
Rp757
ag6
(g7
g8
(F373.7306336946011
F57.74494685231995
tp758
tp759
Rp760
ag6
(g7
g8
(F359.6770800874274
F57.73233333387404
tp761
tp762
Rp763
ag6
(g7
g8
(F320.25725348341456
F97.18855002070653
tp764
tp765
Rp766
ag6
(g7
g8
(F320.22887333961404
F136.86075593600856
tp767
tp768
Rp769
ag599
ag6
(g7
g8
(F365.07762000894445
F173.9734761897977
tp770
tp771
Rp772
ag713
ag710
ag6
(g7
g8
(F425.13448347377937
F125.51762083907605
tp773
tp774
Rp775
asg56
I00
sg57
(lp776
I00
aI00
aI00
aI00
aI00
aI00
aI00
aI01
aI01
aI01
aI01
aI01
aI00
asg59
(lp777
(iPoly
Border
p778
(dp779
g63
I00
sg64
I3
sg65
(iPoly
Border
p780
(dp781
g63
I00
sg64
I4
sg65
(iPoly
Border
p782
(dp783
g63
I00
sg64
I3
sg65
(iPoly
Border
p784
(dp785
g63
I00
sg64
I3
sg65
(iPoly
Border
p786
(dp787
g63
I00
sg64
I4
sg65
(iPoly
Border
p788
(dp789
g63
I00
sg64
I2
sg65
g778
sg76
g323
sg272
g786
sbsg76
g684
sg272
g784
sbsg76
g579
sg272
g782
sbsg76
g377
sg272
g780
sbsg76
g359
sg272
g778
sbsg76
g341
sg272
g788
sbag780
ag782
ag784
ag786
ag788
asbsg272
g730
sbsg76
g323
sg272
g728
sbsg76
g305
sg272
g738
sbag730
ag732
ag734
ag736
ag738
asbsg272
g672
sbsg76
g287
sg272
g682
sbag674
ag676
ag678
ag680
ag682
asbsg272
g636
sbsg76
g138
sg272
g634
sbsg76
g77
sg272
g632
sbsg76
g534
sg272
g630
sbsg76
g377
sg272
g628
sbsg76
g740
sg272
g626
sbsg76
g684
sg272
g638
sbag628
ag630
ag632
ag634
ag636
ag638
asbsg272
g575
sbsg76
g77
sg272
g573
sbsg76
g476
sg272
g571
sbsg76
g392
sg272
g569
sbsg76
g377
sg272
g577
sbag571
ag573
ag575
ag577
asbsg272
g530
sbsg76
g392
sg272
g528
sbsg76
g410
sg272
g526
sbsg76
g443
sg272
g524
sbsg76
(iPoly
Poly
p790
(dp791
g4
I00
sg59
(lp792
(iPoly
Border
p793
(dp794
g272
Nsg273
(lp795
g6
(g7
g8
(I-512
F132.97993190453124
tp796
tp797
Rp798
ag6
(g7
g8
(F75.65449983204543
F133.12948492248918
tp799
tp800
Rp801
ag6
(g7
g8
(F86.9466624880004
F144.43138366515436
tp802
tp803
Rp804
ag6
(g7
g8
(F138.08575055820452
F144.4701776736562
tp805
tp806
Rp807
asg76
g443
sg63
I00
sg65
(iPoly
Border
p808
(dp809
g272
g793
sg273
(lp810
g807
ag493
ag6
(g7
g8
(F142.06123440467974
F164.51261609277554
tp811
tp812
Rp813
asg76
g476
sg63
I00
sg65
(iPoly
Border
p814
(dp815
g272
g808
sg273
(lp816
g813
ag22
ag6
(g7
g8
(F91.61458617592261
F170.90589136691094
tp817
tp818
Rp819
asg76
g1
sg63
I00
sg65
(iPoly
Border
p820
(dp821
g272
g814
sg273
(lp822
g819
ag6
(g7
g8
(F75.65449983204543
F170.90478151743437
tp823
tp824
Rp825
ag6
(g7
g8
(F62.59292607330929
F157.8307913985191
tp826
tp827
Rp828
ag6
(g7
g8
(I-512
F157.4808119248725
tp829
tp830
Rp831
asg76
(iPoly
Poly
p832
(dp833
g4
I00
sg59
(lp834
(iPoly
Border
p835
(dp836
g272
Nsg273
(lp837
g6
(g7
g8
(I-512
F205.13539101605073
tp838
tp839
Rp840
ag6
(g7
g8
(F27.393176175973803
F205.58569785321345
tp841
tp842
Rp843
ag6
(g7
g8
(F62.59292607330929
F240.7889616561406
tp844
tp845
Rp846
ag6
(g7
g8
(F68.95200204425387
F240.79401924303428
tp847
tp848
Rp849
asg76
(iPoly
Poly
p850
(dp851
g4
I00
sg59
(lp852
(iPoly
Border
p853
(dp854
g272
Nsg273
(lp855
g6
(g7
g8
(I-512
F325.8842581152495
tp856
tp857
Rp858
ag6
(g7
g8
(F27.393176175973803
F325.68280861417924
tp859
tp860
Rp861
ag6
(g7
g8
(F56.30627163811874
F296.78764318360896
tp862
tp863
Rp864
ag6
(g7
g8
(F69.19593979348139
F296.7869698369525
tp865
tp866
Rp867
asg76
(iPoly
Poly
p868
(dp869
g4
I00
sg59
(lp870
(iPoly
Border
p871
(dp872
g272
Nsg273
(lp873
g6
(g7
g8
(I-512
F395.8194569612555
tp874
tp875
Rp876
ag6
(g7
g8
(F12.486641330859454
F396.01275791203943
tp877
tp878
Rp879
ag6
(g7
g8
(F41.80472862790454
F425.3564612641229
tp880
tp881
Rp882
asg76
(iPoly
Poly
p883
(dp884
g4
I00
sg59
(lp885
(iPoly
Border
p886
(dp887
g272
Nsg273
(lp888
g876
ag879
ag6
(g7
g8
(F41.80285639747525
F425.35458739787214
tp889
tp890
Rp891
asg76
g868
sg63
I00
sg65
(iPoly
Border
p892
(dp893
g272
g886
sg273
(lp894
g891
ag6
(g7
g8
(F41.81504819974334
F443.1379659354462
tp895
tp896
Rp897
ag6
(g7
g8
(F78.16962049887786
F479.4919476701403
tp898
tp899
Rp900
ag6
(g7
g8
(F78.17298249495883
I512
tp901
tp902
Rp903
asg76
(iPoly
Poly
p904
(dp905
g4
I00
sg59
(lp906
(iPoly
Border
p907
(dp908
g272
Nsg273
(lp909
g6
(g7
g8
(F155.06113756403255
I512
tp910
tp911
Rp912
ag6
(g7
g8
(F155.07077228668848
F459.76870803903944
tp913
tp914
Rp915
ag6
(g7
g8
(F171.69924949052805
F443.1379659354462
tp916
tp917
Rp918
ag6
(g7
g8
(F171.70496655775605
F430.61749323584013
tp919
tp920
Rp921
asg76
(iPoly
Poly
p922
(dp923
g4
I00
sg59
(lp924
(iPoly
Border
p925
(dp926
g272
Nsg273
(lp927
g6
(g7
g8
(F258.58481080268854
I512
tp928
tp929
Rp930
ag6
(g7
g8
(F258.60592257645743
F486.4483563137364
tp931
tp932
Rp933
ag6
(g7
g8
(F285.27675205588025
F459.76870803903944
tp934
tp935
Rp936
ag6
(g7
g8
(F285.28129859277465
F455.61644291064147
tp937
tp938
Rp939
asg76
(iPoly
Poly
p940
(dp941
g4
I00
sg59
(lp942
(iPoly
Border
p943
(dp944
g272
Nsg273
(lp945
g930
ag933
ag936
ag6
(g7
g8
(F285.2812803708492
F455.6330846464478
tp946
tp947
Rp948
asg76
g922
sg63
I00
sg65
(iPoly
Border
p949
(dp950
g272
g943
sg273
(lp951
g948
ag6
(g7
g8
(F293.39420721643455
F455.62357361833426
tp952
tp953
Rp954
ag6
(g7
g8
(F319.76535008871735
F429.27664772170306
tp955
tp956
Rp957
asg76
(iPoly
Poly
p958
(dp959
g3
I00
sg4
I01
sg5
g6
(g7
g8
(F293.39420721643455
F393.6109844240519
tp960
tp961
Rp962
sg12
(lp963
g6
(g7
g8
(F285.297933218679
F455.63306512381354
tp964
tp965
Rp966
ag954
ag6
(g7
g8
(F319.7284253651632
F429.31353853678627
tp967
tp968
Rp969
ag228
ag231
ag6
(g7
g8
(F331.90538902642083
F364.8633242490442
tp970
tp971
Rp972
ag182
ag179
ag6
(g7
g8
(F252.4213344806779
F348.62540529286235
tp973
tp974
Rp975
ag6
(g7
g8
(F252.40097440813923
F384.0643819382804
tp976
tp977
Rp978
ag6
(g7
g8
(F242.86306196312518
F393.6109844240519
tp979
tp980
Rp981
ag6
(g7
g8
(F242.85680230902207
F413.22360372087417
tp982
tp983
Rp984
asg56
I00
sg57
(lp985
I00
aI00
aI01
aI01
aI01
aI01
aI01
aI01
aI01
aI01
aI01
aI00
asg59
(lp986
(iPoly
Border
p987
(dp988
g63
I00
sg64
I3
sg65
(iPoly
Border
p989
(dp990
g63
I00
sg64
I4
sg65
(iPoly
Border
p991
(dp992
g63
I00
sg64
I4
sg65
(iPoly
Border
p993
(dp994
g63
I00
sg64
I4
sg65
(iPoly
Border
p995
(dp996
g63
I00
sg64
I2
sg65
g987
sg76
g922
sg272
g993
sbsg76
(iPoly
Poly
p997
(dp998
g3
I01
sg4
I01
sg5
g6
(g7
g8
(F201.8698291548299
F384.0643819382804
tp999
tp1000
Rp1001
sg12
(lp1002
g6
(g7
g8
(F252.42129515178829
F348.69386161087647
tp1003
tp1004
Rp1005
ag6
(g7
g8
(F228.59920084037407
F324.8899925504791
tp1006
tp1007
Rp1008
ag6
(g7
g8
(F201.8698291548299
F324.92144886666154
tp1009
tp1010
Rp1011
ag6
(g7
g8
(F171.86145575890052
F354.91230298480184
tp1012
tp1013
Rp1014
ag6
(g7
g8
(F160.58943709841392
F354.92575287763987
tp1015
tp1016
Rp1017
ag6
(g7
g8
(F160.56931447871952
F379.7850750818311
tp1018
tp1019
Rp1020
ag6
(g7
g8
(F156.29153832653648
F384.0643819382804
tp1021
tp1022
Rp1023
ag6
(g7
g8
(F156.2597763381749
F415.1765851177682
tp1024
tp1025
Rp1026
ag6
(g7
g8
(F171.73739626737714
F430.64991395448686
tp1027
tp1028
Rp1029
ag6
(g7
g8
(F201.8698291548299
F430.61442961640836
tp1030
tp1031
Rp1032
ag6
(g7
g8
(F219.27199440945483
F413.21866036091143
tp1033
tp1034
Rp1035
ag6
(g7
g8
(F242.85680398907348
F413.21833981839734
tp1036
tp1037
Rp1038
ag981
ag978
asg56
I00
sg57
(lp1039
I01
aI01
aI01
aI01
aI01
aI01
aI01
aI00
aI00
aI00
aI00
aI01
aI01
aI01
asg59
(lp1040
(iPoly
Border
p1041
(dp1042
g63
I00
sg64
I2
sg65
(iPoly
Border
p1043
(dp1044
g63
I00
sg64
I4
sg65
(iPoly
Border
p1045
(dp1046
g63
I00
sg64
I4
sg65
(iPoly
Border
p1047
(dp1048
g63
I00
sg64
I2
sg65
(iPoly
Border
p1049
(dp1050
g63
I00
sg64
I4
sg65
(iPoly
Border
p1051
(dp1052
g63
I00
sg64
I4
sg65
g1041
sg76
g958
sg272
g1049
sbsg76
g922
sg272
g1047
sbsg76
g904
sg272
g1045
sbsg76
(iPoly
Poly
p1053
(dp1054
g3
I01
sg4
I01
sg5
g6
(g7
g8
(F114.99102365042614
F379.7850750818311
tp1055
tp1056
Rp1057
sg12
(lp1058
g6
(g7
g8
(F160.58941223387015
F354.95647033464974
tp1059
tp1060
Rp1061
ag6
(g7
g8
(F157.32172824260948
F351.6857257771501
tp1062
tp1063
Rp1064
ag6
(g7
g8
(F119.88702503808817
F351.64360364644915
tp1065
tp1066
Rp1067
ag6
(g7
g8
(F114.99102365042614
F346.7440353523296
tp1068
tp1069
Rp1070
ag6
(g7
g8
(F97.34402782285574
F346.7308923195509
tp1071
tp1072
Rp1073
ag6
(g7
g8
(F97.33883047442393
F356.3914849309236
tp1074
tp1075
Rp1076
ag6
(g7
g8
(F73.9584648141209
F379.7850750818311
tp1077
tp1078
Rp1079
ag6
(g7
g8
(F73.93993121533296
F407.68703170351046
tp1080
tp1081
Rp1082
ag6
(g7
g8
(F107.49802736776175
F407.7140477778286
tp1083
tp1084
Rp1085
ag6
(g7
g8
(F114.99102365042614
F415.2089932394486
tp1086
tp1087
Rp1088
ag6
(g7
g8
(F156.25971405491157
F415.23759419317287
tp1089
tp1090
Rp1091
ag1023
ag1020
asg56
I00
sg57
(lp1092
I01
aI01
aI01
aI01
aI00
aI00
aI00
aI00
aI00
aI00
aI01
aI01
aI01
asg59
(lp1093
(iPoly
Border
p1094
(dp1095
g63
I00
sg64
I2
sg65
(iPoly
Border
p1096
(dp1097
g63
I00
sg64
I4
sg65
(iPoly
Border
p1098
(dp1099
g63
I00
sg64
I4
sg65
(iPoly
Border
p1100
(dp1101
g63
I00
sg64
I4
sg65
(iPoly
Border
p1102
(dp1103
g63
I00
sg64
I4
sg65
g1094
sg76
g997
sg272
g1100
sbsg76
g904
sg272
g1098
sbsg76
g868
sg272
g1096
sbsg76
(iPoly
Poly
p1104
(dp1105
g3
I00
sg4
I01
sg5
g6
(g7
g8
(F119.88702503808817
F318.6025639169476
tp1106
tp1107
Rp1108
sg12
(lp1109
g6
(g7
g8
(F131.72792764139797
F249.82334679447516
tp1110
tp1111
Rp1112
ag6
(g7
g8
(F134.39961389592136
F252.4974305909774
tp1113
tp1114
Rp1115
ag6
(g7
g8
(F134.45312344059354
F295.7693699131829
tp1116
tp1117
Rp1118
ag6
(g7
g8
(F157.29535735639516
F318.6025639169476
tp1119
tp1120
Rp1121
ag6
(g7
g8
(F157.3131295069474
F351.6857161017143
tp1122
tp1123
Rp1124
ag1067
ag1070
ag6
(g7
g8
(F97.3375473866313
F346.73088749308715
tp1125
tp1126
Rp1127
ag6
(g7
g8
(F69.18779071113882
F318.6025639169476
tp1128
tp1129
Rp1130
ag6
(g7
g8
(F69.17762031913294
F296.80529773544583
tp1131
tp1132
Rp1133
ag6
(g7
g8
(F94.2388392238528
F271.73255451861166
tp1134
tp1135
Rp1136
ag43
ag46
asg56
I00
sg57
(lp1137
I01
aI01
aI01
aI01
aI01
aI01
aI01
aI00
aI00
aI00
aI01
aI01
aI01
asg59
(lp1138
(iPoly
Border
p1139
(dp1140
g63
I00
sg64
I2
sg65
(iPoly
Border
p1141
(dp1142
g63
I00
sg64
I4
sg65
(iPoly
Border
p1143
(dp1144
g63
I00
sg64
I4
sg65
(iPoly
Border
p1145
(dp1146
g63
I00
sg64
I3
sg65
(iPoly
Border
p1147
(dp1148
g63
I00
sg64
I2
sg65
(iPoly
Border
p1149
(dp1150
g63
I00
sg64
I4
sg65
g1139
sg76
g1
sg272
g1147
sbsg76
g850
sg272
g1145
sbsg76
g868
sg272
g1143
sbsg76
g1053
sg272
g1141
sbsg76
(iPoly
Poly
p1151
(dp1152
g3
I01
sg4
I01
sg5
g6
(g7
g8
(F171.86145575890052
F295.7693699131829
tp1153
tp1154
Rp1155
sg12
(lp1156
g6
(g7
g8
(F160.55876009029214
F354.92578948177305
tp1157
tp1158
Rp1159
ag1014
ag1011
ag6
(g7
g8
(F228.64509163272186
F324.8899385441489
tp1160
tp1161
Rp1162
ag170
ag167
ag6
(g7
g8
(F252.7890960849482
F267.38411491038664
tp1163
tp1164
Rp1165
ag118
ag115
ag6
(g7
g8
(F134.39967958545097
F252.55055220426942
tp1166
tp1167
Rp1168
ag1118
ag1121
ag6
(g7
g8
(F157.31312488612406
F351.6771143626204
tp1169
tp1170
Rp1171
asg56
I00
sg57
(lp1172
I01
aI01
aI01
aI01
aI01
aI01
aI01
aI01
aI01
aI01
aI01
aI01
aI01
asg59
(lp1173
(iPoly
Border
p1174
(dp1175
g63
I00
sg64
I4
sg65
(iPoly
Border
p1176
(dp1177
g63
I00
sg64
I4
sg65
(iPoly
Border
p1178
(dp1179
g63
I00
sg64
I4
sg65
(iPoly
Border
p1180
(dp1181
g63
I00
sg64
I4
sg65
(iPoly
Border
p1182
(dp1183
g63
I00
sg64
I2
sg65
g1174
sg76
g1053
sg272
g1180
sbsg76
g1104
sg272
g1178
sbsg76
g77
sg272
g1176
sbsg76
g138
sg272
g1174
sbsg76
g997
sg272
g1182
sbag1176
ag1178
ag1180
ag1182
asbsg272
g1139
sbsg76
g77
sg272
g1149
sbag1141
ag1143
ag1145
ag1147
ag1149
asbsg272
g1094
sbsg76
g1151
sg272
g1102
sbag1096
ag1098
ag1100
ag1102
asbsg272
g1043
sbsg76
g1151
sg272
g1041
sbsg76
g138
sg272
g1051
sbag1043
ag1045
ag1047
ag1049
ag1051
asbsg272
g991
sbsg76
g138
sg272
g989
sbsg76
g202
sg272
g987
sbsg76
g940
sg272
g995
sbag989
ag991
ag993
ag995
asbsg63
I00
sg65
(iPoly
Border
p1184
(dp1185
g272
g949
sg273
(lp1186
g957
ag222
ag6
(g7
g8
(F326.47758391965385
F431.1477380553065
tp1187
tp1188
Rp1189
asg76
g202
sg63
I00
sg65
(iPoly
Border
p1190
(dp1191
g272
g1184
sg273
(lp1192
g1189
ag6
(g7
g8
(F326.48178672447006
F448.0952167609389
tp1193
tp1194
Rp1195
ag6
(g7
g8
(F364.8727315979679
F486.4483563137364
tp1196
tp1197
Rp1198
ag6
(g7
g8
(F364.89795558484747
I512
tp1199
tp1200
Rp1201
asg76
(iPoly
Poly
p1202
(dp1203
g4
I00
sg59
(lp1204
(iPoly
Border
p1205
(dp1206
g272
Nsg273
(lp1207
g6
(g7
g8
(F413.90216578126996
I512
tp1208
tp1209
Rp1210
ag6
(g7
g8
(F413.9417854854399
F465.6697307630002
tp1211
tp1212
Rp1213
ag6
(g7
g8
(F431.5147686732666
F448.0952167609389
tp1214
tp1215
Rp1216
ag6
(g7
g8
(F431.5316457795808
F430.5692382246088
tp1217
tp1218
Rp1219
asg76
(iPoly
Poly
p1220
(dp1221
g4
I00
sg59
(lp1222
(iPoly
Border
p1223
(dp1224
g272
Nsg273
(lp1225
g1210
ag1213
ag1216
ag6
(g7
g8
(F431.5316385869128
F430.5767074283906
tp1226
tp1227
Rp1228
asg76
g1202
sg63
I00
sg65
(iPoly
Border
p1229
(dp1230
g272
g1223
sg273
(lp1231
g1228
ag6
(g7
g8
(F462.56102718965053
F430.5487989541669
tp1232
tp1233
Rp1234
ag6
(g7
g8
(F478.7127160591511
F414.4060179472102
tp1235
tp1236
Rp1237
ag6
(g7
g8
(I512
F414.36928990751215
tp1238
tp1239
Rp1240
asg76
g267
sg63
I00
sg65
Nsbsbag1229
asg5
g6
(g7
g8
(F478.7127160591511
F465.6697307630002
tp1241
tp1242
Rp1243
sg56
I00
sbsg63
I00
sg65
(iPoly
Border
p1244
(dp1245
g272
g1205
sg273
(lp1246
g1219
ag6
(g7
g8
(F423.65158848631506
F422.68923992249654
tp1247
tp1248
Rp1249
asg76
g267
sg63
I00
sg65
(iPoly
Border
p1250
(dp1251
g272
g1244
sg273
(lp1252
g1249
ag213
ag216
ag6
(g7
g8
(F326.477592782781
F431.1834779160482
tp1253
tp1254
Rp1255
asg76
g202
sg63
I00
sg65
(iPoly
Border
p1256
(dp1257
g272
g1250
sg273
(lp1258
g1255
ag1195
ag1198
ag1201
asg76
g940
sg63
I00
sg65
Nsbsbsbsbag1244
ag1250
ag1256
asg5
g6
(g7
g8
(F366.7438380995553
F448.0952167609389
tp1259
tp1260
Rp1261
sg56
I00
sbsg63
I00
sg65
Nsbsbsbsbag949
ag1184
ag1190
asg5
g6
(g7
g8
(F324.61068022288276
F486.4483563137364
tp1262
tp1263
Rp1264
sg56
I00
sbsg63
I00
sg65
(iPoly
Border
p1265
(dp1266
g272
g925
sg273
(lp1267
g939
ag6
(g7
g8
(F242.8515345473669
F413.2183398900146
tp1268
tp1269
Rp1270
asg76
g958
sg63
I00
sg65
(iPoly
Border
p1271
(dp1272
g272
g1265
sg273
(lp1273
g1270
ag1035
ag1032
ag6
(g7
g8
(F171.70495173644179
F430.64995216158115
tp1274
tp1275
Rp1276
asg76
g997
sg63
I00
sg65
(iPoly
Border
p1277
(dp1278
g272
g1271
sg273
(lp1279
g1276
ag918
ag915
ag912
asg76
g904
sg63
I00
sg65
Nsbsbsbsbag1265
ag1271
ag1277
asg5
g6
(g7
g8
(F219.27199440945483
F459.76870803903944
tp1280
tp1281
Rp1282
sg56
I00
sbsg63
I00
sg65
(iPoly
Border
p1283
(dp1284
g272
g907
sg273
(lp1285
g921
ag6
(g7
g8
(F156.32084471061802
F415.2376365593114
tp1286
tp1287
Rp1288
asg76
g997
sg63
I00
sg65
(iPoly
Border
p1289
(dp1290
g272
g1283
sg273
(lp1291
g1288
ag1088
ag1085
ag6
(g7
g8
(F73.9734184635955
F407.6870586625484
tp1292
tp1293
Rp1294
asg76
g1053
sg63
I00
sg65
(iPoly
Border
p1295
(dp1296
g272
g1289
sg273
(lp1297
g1294
ag6
(g7
g8
(F56.30627163811874
F425.3399496067577
tp1298
tp1299
Rp1300
ag6
(g7
g8
(F41.80285768360762
F425.356463394406
tp1301
tp1302
Rp1303
asg76
g868
sg63
I00
sg65
(iPoly
Border
p1304
(dp1305
g272
g1295
sg273
(lp1306
g1303
ag897
ag900
ag903
asg76
g883
sg63
I00
sg65
Nsbsbsbsbsbag1283
ag1289
ag1295
ag1304
asg5
g6
(g7
g8
(F107.49802736776175
F443.1379659354462
tp1307
tp1308
Rp1309
sg56
I00
sbsg63
I00
sg65
Nsbsbag892
asg5
g6
(g7
g8
(F12.486641330859454
F479.4919476701403
tp1310
tp1311
Rp1312
sg56
I00
sbsg63
I00
sg65
(iPoly
Border
p1313
(dp1314
g272
g871
sg273
(lp1315
g882
ag1300
ag6
(g7
g8
(F73.9399089570279
F407.72054112980106
tp1316
tp1317
Rp1318
asg76
g904
sg63
I00
sg65
(iPoly
Border
p1319
(dp1320
g272
g1313
sg273
(lp1321
g1318
ag1079
ag1076
ag6
(g7
g8
(F97.34402434353643
F346.7373595184661
tp1322
tp1323
Rp1324
asg76
g1053
sg63
I00
sg65
(iPoly
Border
p1325
(dp1326
g272
g1319
sg273
(lp1327
g1324
ag1130
ag6
(g7
g8
(F69.17761176796083
F296.78697079439485
tp1328
tp1329
Rp1330
asg76
g1104
sg63
I00
sg65
(iPoly
Border
p1331
(dp1332
g272
g1325
sg273
(lp1333
g1330
ag864
ag861
ag858
asg76
g850
sg63
I00
sg65
Nsbsbsbsbsbag1313
ag1319
ag1325
ag1331
asg5
g6
(g7
g8
(F56.30627163811874
F356.3914849309236
tp1334
tp1335
Rp1336
sg56
I00
sbsg63
I00
sg65
(iPoly
Border
p1337
(dp1338
g272
g853
sg273
(lp1339
g867
ag6
(g7
g8
(F94.26353311043006
F271.70784927663874
tp1340
tp1341
Rp1342
asg76
g1104
sg63
I00
sg65
(iPoly
Border
p1343
(dp1344
g272
g1337
sg273
(lp1345
g1342
ag37
ag6
(g7
g8
(F68.96313146860166
F240.7940280946396
tp1346
tp1347
Rp1348
asg76
g1
sg63
I00
sg65
(iPoly
Border
p1349
(dp1350
g272
g1343
sg273
(lp1351
g1348
ag846
ag843
ag840
asg76
g832
sg63
I00
sg65
Nsbsbsbsbag1337
ag1343
ag1349
asg5
g6
(g7
g8
(F27.393176175973803
F266.07896686686456
tp1352
tp1353
Rp1354
sg56
I00
sbsg63
I00
sg65
(iPoly
Border
p1355
(dp1356
g272
g835
sg273
(lp1357
g849
ag31
ag28
ag6
(g7
g8
(F91.62221336336954
F170.90589189729843
tp1358
tp1359
Rp1360
asg76
g1
sg63
I00
sg65
(iPoly
Border
p1361
(dp1362
g272
g1355
sg273
(lp1363
g1360
ag825
ag828
ag831
asg76
g790
sg63
I00
sg65
Nsbsbsbag1355
ag1361
asg5
g6
(g7
g8
(F62.59292607330929
F180.29569264248946
tp1364
tp1365
Rp1366
sg56
I00
sbsg63
I00
sg65
Nsbsbsbsbag808
ag814
ag820
asg5
g6
(g7
g8
(F75.65449983204543
F148.439880273464
tp1367
tp1368
Rp1369
sg56
I00
sbsg272
g522
sbsg76
g1
sg272
g520
sbsg76
g77
sg272
g532
sbag522
ag524
ag526
ag528
ag530
ag532
asbsg63
I00
sg65
(iPoly
Border
p1370
(dp1371
g272
g464
sg273
(lp1372
g475
ag804
ag801
ag798
asg76
g790
sg63
I00
sg65
Nsbsbsbsbag452
ag464
ag1370
asg5
g6
(g7
g8
(F86.9466624880004
F129.12098831417953
tp1373
tp1374
Rp1375
sg56
I00
sbsg63
I00
sg65
(iPoly
Border
p1376
(dp1377
g272
g431
sg273
(lp1378
g442
ag424
ag421
ag418
asg76
g410
sg63
I00
sg65
Nsbsbag1376
asg5
g6
(g7
g8
(F17.780735271236523
F2.2848303712793876
tp1379
tp1380
Rp1381
sg56
I00
sbsg63
I00
sg65
(iPoly
Border
p1382
(dp1383
g272
g413
sg273
(lp1384
g427
ag457
ag460
ag6
(g7
g8
(F132.2068637248568
F73.12268629783979
tp1385
tp1386
Rp1387
asg76
g443
sg63
I00
sg65
(iPoly
Border
p1388
(dp1389
g272
g1382
sg273
(lp1390
g1387
ag6
(g7
g8
(F143.09191779980452
F62.247870666148344
tp1391
tp1392
Rp1393
asg76
g476
sg63
I00
sg65
(iPoly
Border
p1394
(dp1395
g272
g1388
sg273
(lp1396
g1393
ag406
ag403
ag400
asg76
g392
sg63
I00
sg65
Nsbsbsbsbag1382
ag1388
ag1394
asg5
g6
(g7
g8
(F89.71008691901403
F14.288363275290317
tp1397
tp1398
Rp1399
sg56
I00
sbsg63
I00
sg65
(iPoly
Border
p1400
(dp1401
g272
g395
sg273
(lp1402
g409
ag505
ag508
ag6
(g7
g8
(F206.21412642922812
F76.45977031095164
tp1403
tp1404
Rp1405
asg76
g476
sg63
I00
sg65
(iPoly
Border
p1406
(dp1407
g272
g1400
sg273
(lp1408
g1405
ag554
ag6
(g7
g8
(F265.4809972002434
F22.931684380800135
tp1409
tp1410
Rp1411
asg76
g534
sg63
I00
sg65
(iPoly
Border
p1412
(dp1413
g272
g1406
sg273
(lp1414
g1411
ag388
ag385
asg76
g377
sg63
I00
sg65
Nsbsbsbsbag1400
ag1406
ag1412
asg5
g6
(g7
g8
(F197.57040727829235
F15.336675975887125
tp1415
tp1416
Rp1417
sg56
I00
sbsg63
I00
sg65
(iPoly
Border
p1418
(dp1419
g272
g380
sg273
(lp1420
g391
ag548
ag545
ag6
(g7
g8
(F312.7838634929974
F138.61869340815682
tp1421
tp1422
Rp1423
asg76
g534
sg63
I00
sg65
(iPoly
Border
p1424
(dp1425
g272
g1418
sg273
(lp1426
g1423
ag605
ag6
(g7
g8
(F320.2288569049507
F136.8837297220012
tp1427
tp1428
Rp1429
asg76
g579
sg63
I00
sg65
(iPoly
Border
p1430
(dp1431
g272
g1424
sg273
(lp1432
g1429
ag766
ag6
(g7
g8
(F359.67448140289827
F57.73493441735702
tp1433
tp1434
Rp1435
asg76
g740
sg63
I00
sg65
(iPoly
Border
p1436
(dp1437
g272
g1430
sg273
(lp1438
g1435
ag373
ag370
ag367
asg76
g359
sg63
I00
sg65
Nsbsbsbsbsbag1418
ag1424
ag1430
ag1436
asg5
g6
(g7
g8
(F318.5000749203159
F45.42460699414932
tp1439
tp1440
Rp1441
sg56
I00
sbsg63
I00
sg65
(iPoly
Border
p1442
(dp1443
g272
g362
sg273
(lp1444
g376
ag760
ag757
ag6
(g7
g8
(F419.78334088781105
F75.17938779091642
tp1445
tp1446
Rp1447
asg76
g740
sg63
I00
sg65
(iPoly
Border
p1448
(dp1449
g272
g1442
sg273
(lp1450
g1447
ag355
ag352
ag349
asg76
g341
sg63
I00
sg65
Nsbsbsbag1442
ag1448
asg5
g6
(g7
g8
(F391.139728107198
F35.72615062736396
tp1451
tp1452
Rp1453
sg56
I00
sbsg63
I00
sg65
(iPoly
Border
p1454
(dp1455
g272
g344
sg273
(lp1456
g358
ag751
ag6
(g7
g8
(F441.8277273494897
F108.83831216646162
tp1457
tp1458
Rp1459
asg76
g740
sg63
I00
sg65
(iPoly
Border
p1460
(dp1461
g272
g1454
sg273
(lp1462
g1459
ag337
ag334
ag331
asg76
g323
sg63
I00
sg65
Nsbsbsbag1454
ag1460
asg5
g6
(g7
g8
(F487.69724889677934
F75.01007954454467
tp1463
tp1464
Rp1465
sg56
I00
sbsg63
I00
sg65
(iPoly
Border
p1466
(dp1467
g272
g326
sg273
(lp1468
g340
ag6
(g7
g8
(F425.1189397028112
F125.53317786595625
tp1469
tp1470
Rp1471
asg76
g740
sg63
I00
sg65
(iPoly
Border
p1472
(dp1473
g272
g1466
sg273
(lp1474
g1471
ag704
ag6
(g7
g8
(F442.4465068215844
F168.7398894772208
tp1475
tp1476
Rp1477
asg76
g684
sg63
I00
sg65
(iPoly
Border
p1478
(dp1479
g272
g1472
sg273
(lp1480
g1477
ag319
ag316
ag313
asg76
g305
sg63
I00
sg65
Nsbsbsbsbag1466
ag1472
ag1478
asg5
g6
(g7
g8
(F478.94135668039564
F151.44161890315917
tp1481
tp1482
Rp1483
sg56
I00
sbsg63
I00
sg65
(iPoly
Border
p1484
(dp1485
g272
g308
sg273
(lp1486
g322
ag698
ag695
ag6
(g7
g8
(F452.89873867974546
F244.03748151616495
tp1487
tp1488
Rp1489
asg76
g684
sg63
I00
sg65
(iPoly
Border
p1490
(dp1491
g272
g1484
sg273
(lp1492
g1489
ag301
ag298
ag295
asg76
g287
sg63
I00
sg65
Nsbsbsbag1484
ag1490
asg5
g6
(g7
g8
(F473.1171750909735
F191.93549935797688
tp1493
tp1494
Rp1495
sg56
I00
sbsg63
I00
sg65
(iPoly
Border
p1496
(dp1497
g272
g290
sg273
(lp1498
g304
ag725
ag6
(g7
g8
(F408.1823516614685
F274.6624826438624
tp1499
tp1500
Rp1501
asg76
g684
sg63
I00
sg65
(iPoly
Border
p1502
(dp1503
g272
g1496
sg273
(lp1504
g1501
ag654
ag651
ag6
(g7
g8
(F419.7851049041689
F329.09110604432607
tp1505
tp1506
Rp1507
asg76
g640
sg63
I00
sg65
(iPoly
Border
p1508
(dp1509
g272
g1502
sg273
(lp1510
g1507
ag283
ag280
ag277
asg76
g267
sg63
I00
sg65
Nsbsbsbsbag1496
ag1502
ag1508
asg5
g6
(g7
g8
(F476.42024102953087
F292.7937579473771
tp1511
tp1512
Rp1513
sg56
I00
sbsg63
I00
sg65
(iPoly
Border
p1514
(dp1515
g272
g270
sg273
(lp1516
g286
ag6
(g7
g8
(F397.15282803393785
F351.73275684712524
tp1517
tp1518
Rp1519
asg76
g640
sg63
I00
sg65
(iPoly
Border
p1520
(dp1521
g272
g1514
sg273
(lp1522
g1519
ag249
ag252
ag6
(g7
g8
(F423.6655628946154
F422.70321422618264
tp1523
tp1524
Rp1525
asg76
g202
sg63
I00
sg65
(iPoly
Border
p1526
(dp1527
g272
g1520
sg273
(lp1528
g1525
ag6
(g7
g8
(F431.5391083207949
F430.5767007099574
tp1529
tp1530
Rp1531
asg76
g1202
sg63
I00
sg65
(iPoly
Border
p1532
(dp1533
g272
g1526
sg273
(lp1534
g1531
ag1234
ag1237
ag1240
asg76
g1220
sg63
I00
sg65
Nsbsbsbsbsbag1514
ag1520
ag1526
ag1532
asg5
g6
(g7
g8
(F462.56102718965053
F379.28508613837704
tp1535
tp1536
Rp1537
sg56
I00
sbsg272
g263
sbsg76
g640
sg272
g261
sbsg76
g138
sg272
g259
sbsg76
g958
sg272
g257
sbsg76
g940
sg272
g255
sbsg76
g1202
sg272
g265
sbag257
ag259
ag261
ag263
ag265
asbsg272
g198
sbsg76
g958
sg272
g196
sbsg76
g997
sg272
g194
sbsg76
g1151
sg272
g192
sbsg76
g77
sg272
g190
sbsg76
g579
sg272
g188
sbsg76
g640
sg272
g200
sbag190
ag192
ag194
ag196
ag198
ag200
asbsg272
g134
sbsg76
g1151
sg272
g132
sbsg76
g1104
sg272
g130
sbsg76
g1
sg272
g128
sbsg76
g476
sg272
g126
sbsg76
g534
sg272
g124
sbsg76
g579
sg272
g136
sbag126
ag128
ag130
ag132
ag134
ag136
asbsg272
g72
sbsg76
g1104
sg272
g70
sbsg76
g850
sg272
g68
sbsg76
g832
sg272
g66
sbsg76
g790
sg272
g61
sbsg76
g476
sg272
g74
sbag66
ag68
ag70
ag72
ag74
asbag1104
ag1053
ag476
ag77
ag1151
ag997
ag534
ag579
ag138
ag958
ag740
ag684
ag640
ag202
a.