(lp0
(iPoly
Poly
p1
(dp2
S'reversed'
p3
I01
sS'isClosed'
p4
I01
sS'centroid'
p5
ccopy_reg
_reconstructor
p6
(cVec2
Vec2
p7
c__builtin__
tuple
p8
(F59.587608769257216
F296.2809970005228
tp9
tp10
Rp11
sS'verts'
p12
(lp13
g6
(g7
g8
(F59.587608769257216
F368.20624403322563
tp14
tp15
Rp16
ag6
(g7
g8
(F36.05834198025841
F368.2154607901175
tp17
tp18
Rp19
ag6
(g7
g8
(F31.45084645242919
F363.6044052361241
tp20
tp21
Rp22
ag6
(g7
g8
(F31.499497801497945
F296.2809970005228
tp23
tp24
Rp25
ag6
(g7
g8
(F49.14549241646798
F278.63287387407445
tp26
tp27
Rp28
ag6
(g7
g8
(F49.20413039687719
F231.24012980431684
tp29
tp30
Rp31
ag6
(g7
g8
(F59.100668589946395
F221.35050093441507
tp32
tp33
Rp34
ag6
(g7
g8
(F59.587608769257216
F221.3507016980592
tp35
tp36
Rp37
ag6
(g7
g8
(F63.9895161302037
F225.75267910347677
tp38
tp39
Rp40
ag6
(g7
g8
(F64.00843035191949
F242.6522748603716
tp41
tp42
Rp43
ag6
(g7
g8
(F77.95378432391506
F256.59353920463525
tp44
tp45
Rp46
ag6
(g7
g8
(F77.92995108454134
F296.2809970005228
tp47
tp48
Rp49
ag6
(g7
g8
(F59.67877796314521
F314.542107887029
tp50
tp51
Rp52
ag6
(g7
g8
(F59.6155560965499
F368.17832306261454
tp53
tp54
Rp55
asS'wtf'
p56
I00
sS'others'
p57
(lp58
I01
aI01
aI00
aI00
aI00
aI00
aI00
aI01
aI01
aI01
aI01
aI01
aI01
aI01
asS'borders'
p59
(lp60
(iPoly
Border
p61
(dp62
S'flipped'
p63
I00
sS'nVerts'
p64
I4
sS'next'
p65
(iPoly
Border
p66
(dp67
g63
I00
sg64
I3
sg65
(iPoly
Border
p68
(dp69
g63
I00
sg64
I3
sg65
(iPoly
Border
p70
(dp71
g63
I00
sg64
I2
sg65
(iPoly
Border
p72
(dp73
g63
I00
sg64
I4
sg65
(iPoly
Border
p74
(dp75
g63
I00
sg64
I2
sg65
(iPoly
Border
p76
(dp77
g63
I00
sg64
I3
sg65
g61
sS'other'
p78
(iPoly
Poly
p79
(dp80
g3
I00
sg4
I01
sg5
g6
(g7
g8
(F86.35487000640944
F413.38947360890353
tp81
tp82
Rp83
sg12
(lp84
g6
(g7
g8
(F101.30576908374529
F359.8008803682205
tp85
tp86
Rp87
ag6
(g7
g8
(F101.3066475184151
F360.66066857462647
tp88
tp89
Rp90
ag6
(g7
g8
(F117.75273228882895
F377.10248643748963
tp91
tp92
Rp93
ag6
(g7
g8
(F117.76822813630793
F401.1892267895849
tp94
tp95
Rp96
ag6
(g7
g8
(F129.97428777169995
F413.38947360890353
tp97
tp98
Rp99
ag6
(g7
g8
(F129.9889777945798
F444.01610215595656
tp100
tp101
Rp102
ag6
(g7
g8
(F86.35487000640944
F443.97746168552374
tp103
tp104
Rp105
ag6
(g7
g8
(F80.29489347736683
F437.9165901245426
tp106
tp107
Rp108
ag6
(g7
g8
(F51.9433874595133
F437.902935891955
tp109
tp110
Rp111
ag6
(g7
g8
(F51.94204679213695
F429.2600839464384
tp112
tp113
Rp114
ag6
(g7
g8
(F36.06046541712918
F413.38947360890353
tp115
tp116
Rp117
ag6
(g7
g8
(F36.03118830120947
F368.21547142660955
tp118
tp119
Rp120
ag16
ag6
(g7
g8
(F59.65274990075342
F368.14116433529847
tp121
tp122
Rp123
ag6
(g7
g8
(F78.02112027842928
F368.1299889435625
tp124
tp125
Rp126
ag6
(g7
g8
(F86.35487000640944
F359.80159255237
tp127
tp128
Rp129
asg56
I00
sg57
(lp130
I01
aI01
aI01
aI01
aI01
aI00
aI00
aI00
aI00
aI00
aI00
aI01
aI01
aI01
aI01
aI01
asg59
(lp131
(iPoly
Border
p132
(dp133
g63
I00
sg64
I3
sg65
(iPoly
Border
p134
(dp135
g63
I00
sg64
I4
sg65
(iPoly
Border
p136
(dp137
g63
I00
sg64
I4
sg65
(iPoly
Border
p138
(dp139
g63
I00
sg64
I4
sg65
(iPoly
Border
p140
(dp141
g63
I00
sg64
I3
sg65
(iPoly
Border
p142
(dp143
g63
I00
sg64
I4
sg65
g132
sg78
(iPoly
Poly
p144
(dp145
g3
I00
sg4
I01
sg5
g6
(g7
g8
(F78.02112027842928
F314.542107887029
tp146
tp147
Rp148
sg12
(lp149
g6
(g7
g8
(F134.8742000478483
F326.2313919708739
tp150
tp151
Rp152
ag6
(g7
g8
(F134.86975931245004
F314.542107887029
tp153
tp154
Rp155
ag6
(g7
g8
(F96.82986969143313
F276.52157956269957
tp156
tp157
Rp158
ag6
(g7
g8
(F96.82979313556174
F275.3784858256235
tp159
tp160
Rp161
ag6
(g7
g8
(F78.02112027842928
F256.56346709551934
tp162
tp163
Rp164
ag6
(g7
g8
(F77.9538024114285
F256.56341961347766
tp165
tp166
Rp167
ag49
ag52
ag6
(g7
g8
(F59.61559986949582
F368.14118693752954
tp168
tp169
Rp170
ag126
ag129
ag6
(g7
g8
(F101.3248287373871
F359.8008794603163
tp171
tp172
Rp173
asg56
I00
sg57
(lp174
I01
aI01
aI01
aI01
aI01
aI01
aI01
aI01
aI01
aI01
aI01
aI01
asg59
(lp175
(iPoly
Border
p176
(dp177
g63
I00
sg64
I4
sg65
(iPoly
Border
p178
(dp179
g63
I00
sg64
I3
sg65
(iPoly
Border
p180
(dp181
g63
I00
sg64
I4
sg65
(iPoly
Border
p182
(dp183
g63
I00
sg64
I4
sg65
(iPoly
Border
p184
(dp185
g63
I00
sg64
I2
sg65
g176
sg78
(iPoly
Poly
p186
(dp187
g3
I01
sg4
I01
sg5
g6
(g7
g8
(F169.00091401000185
F360.66066857462647
tp188
tp189
Rp190
sg12
(lp191
g6
(g7
g8
(F204.65641580809933
F384.7368694888577
tp192
tp193
Rp194
ag6
(g7
g8
(F169.00091401000185
F384.7348115734617
tp195
tp196
Rp197
ag6
(g7
g8
(F161.38764590159843
F377.1150837907496
tp198
tp199
Rp200
ag6
(g7
g8
(F117.76283022534128
F377.11258175411024
tp201
tp202
Rp203
ag90
ag6
(g7
g8
(F101.3057885476014
F359.8199310665862
tp204
tp205
Rp206
ag6
(g7
g8
(F134.85692750418744
F326.24867487113954
tp207
tp208
Rp209
ag6
(g7
g8
(F153.67850872545392
F326.24799539184875
tp210
tp211
Rp212
ag6
(g7
g8
(F169.00091401000185
F310.9342527454773
tp213
tp214
Rp215
ag6
(g7
g8
(F189.32666040336076
F310.91307537007134
tp216
tp217
Rp218
ag6
(g7
g8
(F189.35022614235905
F339.49653392446345
tp219
tp220
Rp221
ag6
(g7
g8
(F210.52376553554578
F360.66066857462647
tp222
tp223
Rp224
ag6
(g7
g8
(F210.53421431153419
F378.8597057631297
tp225
tp226
Rp227
asg56
I00
sg57
(lp228
I01
aI01
aI01
aI01
aI01
aI01
aI01
aI01
aI01
aI01
aI01
aI01
aI01
asg59
(lp229
(iPoly
Border
p230
(dp231
g63
I00
sg64
I4
sg65
(iPoly
Border
p232
(dp233
g63
I00
sg64
I4
sg65
(iPoly
Border
p234
(dp235
g63
I00
sg64
I2
sg65
(iPoly
Border
p236
(dp237
g63
I00
sg64
I3
sg65
(iPoly
Border
p238
(dp239
g63
I00
sg64
I4
sg65
(iPoly
Border
p240
(dp241
g63
I00
sg64
I2
sg65
g230
sg78
(iPoly
Poly
p242
(dp243
g3
I00
sg4
I01
sg5
g6
(g7
g8
(F225.67759690373612
F423.44581065999125
tp244
tp245
Rp246
sg12
(lp247
g6
(g7
g8
(F270.9874865245671
F438.9293357790311
tp248
tp249
Rp250
ag6
(g7
g8
(F225.67759690373612
F438.92729031023015
tp251
tp252
Rp253
ag6
(g7
g8
(F224.27024394274872
F437.51974213930674
tp254
tp255
Rp256
ag6
(g7
g8
(F182.3996355707553
F437.51610685459843
tp257
tp258
Rp259
ag6
(g7
g8
(F182.40529634185236
F423.44581065999125
tp260
tp261
Rp262
ag6
(g7
g8
(F204.65994646348224
F401.1892267895849
tp263
tp264
Rp265
ag6
(g7
g8
(F204.6692749478637
F384.72401173782674
tp266
tp267
Rp268
ag6
(g7
g8
(F210.53835022389583
F378.8555702974293
tp269
tp270
Rp271
ag6
(g7
g8
(F225.67759690373612
F378.8711678136858
tp272
tp273
Rp274
ag6
(g7
g8
(F230.87307766790295
F384.07117677076894
tp275
tp276
Rp277
ag6
(g7
g8
(F248.09996935715347
F384.089084202209
tp278
tp279
Rp280
ag6
(g7
g8
(F248.12015738443407
F400.6115594439023
tp281
tp282
Rp283
ag6
(g7
g8
(F270.9702750857716
F423.44581065999125
tp284
tp285
Rp286
asg56
I00
sg57
(lp287
I00
aI00
aI00
aI01
aI01
aI01
aI01
aI01
aI01
aI01
aI01
aI01
aI01
asg59
(lp288
(iPoly
Border
p289
(dp290
g63
I00
sg64
I4
sg65
(iPoly
Border
p291
(dp292
g63
I00
sg64
I4
sg65
(iPoly
Border
p293
(dp294
g63
I00
sg64
I2
sg65
(iPoly
Border
p295
(dp296
g63
I00
sg64
I4
sg65
(iPoly
Border
p297
(dp298
g63
I00
sg64
I4
sg65
g289
sg78
(iPoly
Poly
p299
(dp300
g3
I01
sg4
I01
sg5
g6
(g7
g8
(F293.4128355664697
F400.6115594439023
tp301
tp302
Rp303
sg12
(lp304
g6
(g7
g8
(F285.044609957446
F453.0012217895457
tp305
tp306
Rp307
ag6
(g7
g8
(F270.98750787156143
F438.9485396775464
tp308
tp309
Rp310
ag286
ag283
ag6
(g7
g8
(F248.09999026611916
F384.1061967146592
tp311
tp312
Rp313
ag6
(g7
g8
(F292.68049873895217
F339.49653392446345
tp314
tp315
Rp316
ag6
(g7
g8
(F292.69483779713414
F321.66574878838424
tp317
tp318
Rp319
ag6
(g7
g8
(F293.4128355664697
F320.9483601783407
tp320
tp321
Rp322
ag6
(g7
g8
(F293.7668269298325
F320.9479646270169
tp323
tp324
Rp325
ag6
(g7
g8
(F293.793613291033
F360.74375906872865
tp326
tp327
Rp328
ag6
(g7
g8
(F333.69168690750524
F400.6115594439023
tp329
tp330
Rp331
ag6
(g7
g8
(F333.69320155090537
F412.738682147426
tp332
tp333
Rp334
ag6
(g7
g8
(F319.14853011726257
F427.2966666944618
tp335
tp336
Rp337
ag6
(g7
g8
(F319.14378397724386
F441.81516868603336
tp338
tp339
Rp340
ag6
(g7
g8
(F293.4128355664697
F467.52445566912877
tp341
tp342
Rp343
ag6
(g7
g8
(F285.0566549035043
F467.53462671087266
tp344
tp345
Rp346
asg56
I00
sg57
(lp347
I00
aI00
aI01
aI01
aI01
aI01
aI01
aI01
aI01
aI01
aI01
aI01
aI01
aI01
aI00
aI00
asg59
(lp348
(iPoly
Border
p349
(dp350
g63
I00
sg64
I3
sg65
(iPoly
Border
p351
(dp352
g63
I00
sg64
I3
sg65
(iPoly
Border
p353
(dp354
g63
I00
sg64
I4
sg65
(iPoly
Border
p355
(dp356
g63
I00
sg64
I3
sg65
(iPoly
Border
p357
(dp358
g63
I00
sg64
I3
sg65
(iPoly
Border
p359
(dp360
g63
I00
sg64
I4
sg65
(iPoly
Border
p361
(dp362
g63
I00
sg64
I3
sg65
g349
sg78
(iPoly
Poly
p363
(dp364
g4
I00
sg59
(lp365
(iPoly
Border
p366
(dp367
S'prev'
p368
NsS'line'
p369
(lp370
g6
(g7
g8
(F262.664715962287
I512
tp371
tp372
Rp373
ag6
(g7
g8
(F262.6738762176788
F489.92262128712537
tp374
tp375
Rp376
ag6
(g7
g8
(F285.0566422211992
F467.51932426989185
tp377
tp378
Rp379
asg78
(iPoly
Poly
p380
(dp381
g4
I00
sg59
(lp382
(iPoly
Border
p383
(dp384
g368
Nsg369
(lp385
g6
(g7
g8
(F401.9661983144295
I512
tp386
tp387
Rp388
ag6
(g7
g8
(F401.9813315102021
F493.20055733636445
tp389
tp390
Rp391
ag6
(g7
g8
(F405.25618242828597
F489.92262128712537
tp392
tp393
Rp394
ag6
(g7
g8
(F405.2592025311143
F487.36937483588423
tp395
tp396
Rp397
asg78
(iPoly
Poly
p398
(dp399
g4
I00
sg59
(lp400
(iPoly
Border
p401
(dp402
g368
Nsg369
(lp403
g388
ag391
ag394
ag6
(g7
g8
(F405.2591643198056
F487.4016793280524
tp404
tp405
Rp406
asg78
g380
sg63
I00
sg65
(iPoly
Border
p407
(dp408
g368
g401
sg369
(lp409
g406
ag6
(g7
g8
(F436.9627810197727
F487.36800894167783
tp410
tp411
Rp412
ag6
(g7
g8
(F469.27244176089505
F455.07490820370543
tp413
tp414
Rp415
ag6
(g7
g8
(I512
F455.0491305552832
tp416
tp417
Rp418
asg78
(iPoly
Poly
p419
(dp420
g4
I00
sg59
(lp421
(iPoly
Border
p422
(dp423
g368
Nsg369
(lp424
g6
(g7
g8
(I512
F423.0239021280799
tp425
tp426
Rp427
ag6
(g7
g8
(F458.33171739648867
F422.9656938782599
tp428
tp429
Rp430
ag6
(g7
g8
(F436.9627810197727
F401.5963720753822
tp431
tp432
Rp433
ag6
(g7
g8
(F415.2433429688708
F401.57919011081685
tp434
tp435
Rp436
asg78
(iPoly
Poly
p437
(dp438
g4
I00
sg59
(lp439
(iPoly
Border
p440
(dp441
g368
Nsg369
(lp442
g427
ag430
ag433
ag6
(g7
g8
(F415.2093666814162
F401.5791632326184
tp443
tp444
Rp445
asg78
g419
sg63
I00
sg65
(iPoly
Border
p446
(dp447
g368
g440
sg369
(lp448
g445
ag6
(g7
g8
(F392.07499982602866
F378.4505001931607
tp449
tp450
Rp451
asg78
(iPoly
Poly
p452
(dp453
g3
I01
sg4
I01
sg5
g6
(g7
g8
(F371.5449286876879
F427.2966666944618
tp454
tp455
Rp456
sg12
(lp457
g6
(g7
g8
(F392.0418453354922
F378.417353876918
tp458
tp459
Rp460
ag6
(g7
g8
(F390.7870861832827
F378.41728664888757
tp461
tp462
Rp463
ag6
(g7
g8
(F387.65684136046417
F375.28610965323105
tp464
tp465
Rp466
ag6
(g7
g8
(F371.5449286876879
F375.28653302567704
tp467
tp468
Rp469
ag6
(g7
g8
(F334.07246463206843
F412.75389273751335
tp470
tp471
Rp472
ag6
(g7
g8
(F333.67786960504816
F412.75402812700924
tp473
tp474
Rp475
ag337
ag6
(g7
g8
(F319.1437872614562
F441.80512223921556
tp476
tp477
Rp478
ag6
(g7
g8
(F337.9650721775931
F441.8089299477747
tp479
tp480
Rp481
ag6
(g7
g8
(F371.5449286876879
F475.4103580338125
tp482
tp483
Rp484
ag6
(g7
g8
(F393.28011437581176
F475.43217512755695
tp485
tp486
Rp487
ag6
(g7
g8
(F393.28400594638714
F449.24235980901886
tp488
tp489
Rp490
ag6
(g7
g8
(F415.2237037610736
F427.2966666944618
tp491
tp492
Rp493
ag6
(g7
g8
(F415.24331706949977
F401.6131052501783
tp494
tp495
Rp496
asg56
I00
sg57
(lp497
I00
aI01
aI01
aI01
aI01
aI01
aI01
aI01
aI00
aI00
aI00
aI00
aI00
aI00
asg59
(lp498
(iPoly
Border
p499
(dp500
g63
I00
sg64
I4
sg65
(iPoly
Border
p501
(dp502
g63
I00
sg64
I4
sg65
(iPoly
Border
p503
(dp504
g63
I00
sg64
I3
sg65
(iPoly
Border
p505
(dp506
g63
I00
sg64
I4
sg65
(iPoly
Border
p507
(dp508
g63
I00
sg64
I3
sg65
(iPoly
Border
p509
(dp510
g63
I00
sg64
I2
sg65
g499
sg78
g437
sg368
g507
sbsg78
(iPoly
Poly
p511
(dp512
g3
I00
sg4
I01
sg5
g6
(g7
g8
(F390.7870861832827
F310.29001887970855
tp513
tp514
Rp515
sg12
(lp516
g6
(g7
g8
(F420.30131147835397
F347.0670475886362
tp517
tp518
Rp519
ag6
(g7
g8
(F420.27740386115295
F310.29001887970855
tp520
tp521
Rp522
ag6
(g7
g8
(F412.85754824843895
F302.87665203570276
tp523
tp524
Rp525
ag6
(g7
g8
(F412.8483083964207
F256.25060318372743
tp526
tp527
Rp528
ag6
(g7
g8
(F390.7870861832827
F256.26889063770517
tp529
tp530
Rp531
ag6
(g7
g8
(F371.2370046722072
F275.80281279021045
tp532
tp533
Rp534
ag6
(g7
g8
(F358.3128677215603
F275.80786377102373
tp535
tp536
Rp537
ag6
(g7
g8
(F337.176968476681
F296.95092786664094
tp538
tp539
Rp540
ag6
(g7
g8
(F337.18461883410237
F310.29001887970855
tp541
tp542
Rp543
ag6
(g7
g8
(F387.67493198124885
F360.74375906872865
tp544
tp545
Rp546
ag6
(g7
g8
(F387.67540748886205
F375.3046813105385
tp547
tp548
Rp549
ag463
ag6
(g7
g8
(F392.07500825277464
F378.41735565373517
tp550
tp551
Rp552
ag6
(g7
g8
(F392.07579580649815
F375.31970614462324
tp553
tp554
Rp555
asg56
I00
sg57
(lp556
I00
aI00
aI00
aI01
aI01
aI01
aI01
aI01
aI01
aI01
aI01
aI01
aI00
aI00
asg59
(lp557
(iPoly
Border
p558
(dp559
g63
I00
sg64
I4
sg65
(iPoly
Border
p560
(dp561
g63
I00
sg64
I4
sg65
(iPoly
Border
p562
(dp563
g63
I00
sg64
I2
sg65
(iPoly
Border
p564
(dp565
g63
I00
sg64
I4
sg65
(iPoly
Border
p566
(dp567
g63
I00
sg64
I3
sg65
(iPoly
Border
p568
(dp569
g63
I00
sg64
I3
sg65
g558
sg78
g437
sg368
g566
sbsg78
g452
sg368
g564
sbsg78
(iPoly
Poly
p570
(dp571
g3
I00
sg4
I01
sg5
g6
(g7
g8
(F334.07246463206843
F360.74375906872865
tp572
tp573
Rp574
sg12
(lp575
g6
(g7
g8
(F387.67540688236227
F375.2861091653852
tp576
tp577
Rp578
ag546
ag543
ag6
(g7
g8
(F337.17695121380507
F296.9208284790942
tp579
tp580
Rp581
ag6
(g7
g8
(F334.07246463206843
F296.9231824282581
tp582
tp583
Rp584
ag6
(g7
g8
(F319.7052718636993
F311.28174185030355
tp585
tp586
Rp587
ag6
(g7
g8
(F303.4613046264006
F311.28645488451264
tp588
tp589
Rp590
ag6
(g7
g8
(F293.76684265993595
F320.97133442925616
tp591
tp592
Rp593
ag328
ag331
ag6
(g7
g8
(F333.6932034669178
F412.754022865808
tp594
tp595
Rp596
ag472
ag469
asg56
I00
sg57
(lp597
I01
aI01
aI01
aI01
aI01
aI01
aI01
aI01
aI01
aI01
aI01
aI01
aI01
asg59
(lp598
(iPoly
Border
p599
(dp600
g63
I00
sg64
I4
sg65
(iPoly
Border
p601
(dp602
g63
I00
sg64
I4
sg65
(iPoly
Border
p603
(dp604
g63
I00
sg64
I2
sg65
(iPoly
Border
p605
(dp606
g63
I00
sg64
I4
sg65
(iPoly
Border
p607
(dp608
g63
I00
sg64
I4
sg65
g599
sg78
g452
sg368
g605
sbsg78
g299
sg368
g603
sbsg78
(iPoly
Poly
p609
(dp610
g3
I00
sg4
I01
sg5
g6
(g7
g8
(F281.8160422616231
F252.87211533692056
tp611
tp612
Rp613
sg12
(lp614
g6
(g7
g8
(F293.7902617968653
F320.9479384408055
tp615
tp616
Rp617
ag6
(g7
g8
(F303.5199021441967
F311.22791528701464
tp618
tp619
Rp620
ag6
(g7
g8
(F303.4687075023637
F252.87211533692056
tp621
tp622
Rp623
ag6
(g7
g8
(F298.05260662295865
F247.461165209833
tp624
tp625
Rp626
ag6
(g7
g8
(F298.04886043229726
F239.45014967911612
tp627
tp628
Rp629
ag6
(g7
g8
(F281.8160422616231
F223.20684065657682
tp630
tp631
Rp632
ag6
(g7
g8
(F265.893763162338
F223.19399881137969
tp633
tp634
Rp635
ag6
(g7
g8
(F236.23780501966345
F252.87211533692056
tp636
tp637
Rp638
ag6
(g7
g8
(F236.214110824214
F276.04241564254363
tp639
tp640
Rp641
ag6
(g7
g8
(F281.8160422616231
F321.67030731466275
tp642
tp643
Rp644
ag6
(g7
g8
(F292.6862165272414
F321.6743627438717
tp645
tp646
Rp647
ag322
asg56
I00
sg57
(lp648
I01
aI01
aI01
aI01
aI01
aI01
aI01
aI01
aI01
aI01
aI01
aI01
asg59
(lp649
(iPoly
Border
p650
(dp651
g63
I00
sg64
I2
sg65
(iPoly
Border
p652
(dp653
g63
I00
sg64
I4
sg65
(iPoly
Border
p654
(dp655
g63
I00
sg64
I3
sg65
(iPoly
Border
p656
(dp657
g63
I00
sg64
I3
sg65
(iPoly
Border
p658
(dp659
g63
I00
sg64
I3
sg65
(iPoly
Border
p660
(dp661
g63
I00
sg64
I3
sg65
g650
sg78
g299
sg368
g658
sbsg78
(iPoly
Poly
p662
(dp663
g3
I01
sg4
I01
sg5
g6
(g7
g8
(F230.87307766790295
F339.49653392446345
tp664
tp665
Rp666
sg12
(lp667
g224
ag221
ag6
(g7
g8
(F189.3266985235254
F310.959312245851
tp668
tp669
Rp670
ag6
(g7
g8
(F221.2893693208152
F278.9840602319464
tp671
tp672
Rp673
ag6
(g7
g8
(F227.95515302607635
F278.98120140404825
tp674
tp675
Rp676
ag6
(g7
g8
(F230.87307766790295
F276.0639960381654
tp677
tp678
Rp679
ag6
(g7
g8
(F236.23071936946135
F276.0590336426917
tp680
tp681
Rp682
ag644
ag6
(g7
g8
(F292.6948308674285
F321.67436595769755
tp683
tp684
Rp685
ag316
ag6
(g7
g8
(F248.11707382626003
F384.08910198238164
tp686
tp687
Rp688
ag277
ag274
ag6
(g7
g8
(F210.53421193475438
F378.8555660338729
tp689
tp690
Rp691
asg56
I00
sg57
(lp692
I01
aI01
aI01
aI01
aI01
aI01
aI01
aI01
aI01
aI01
aI01
aI01
aI01
aI01
asg59
(lp693
(iPoly
Border
p694
(dp695
g63
I00
sg64
I4
sg65
(iPoly
Border
p696
(dp697
g63
I00
sg64
I3
sg65
(iPoly
Border
p698
(dp699
g63
I00
sg64
I3
sg65
(iPoly
Border
p700
(dp701
g63
I00
sg64
I4
sg65
(iPoly
Border
p702
(dp703
g63
I00
sg64
I2
sg65
(iPoly
Border
p704
(dp705
g63
I00
sg64
I4
sg65
g694
sg78
g186
sg368
g702
sbsg78
(iPoly
Poly
p706
(dp707
g3
I00
sg4
I01
sg5
g6
(g7
g8
(F153.67850872545392
F276.52157956269957
tp708
tp709
Rp710
sg12
(lp711
g6
(g7
g8
(F221.31731194050698
F278.95610661341937
tp712
tp713
Rp714
ag6
(g7
g8
(F221.31487994356647
F276.52157956269957
tp715
tp716
Rp717
ag6
(g7
g8
(F188.53205798088769
F243.75121699289738
tp718
tp719
Rp720
ag6
(g7
g8
(F153.67850872545392
F243.7852283510357
tp721
tp722
Rp723
ag6
(g7
g8
(F122.07370589817987
F275.38862607203544
tp724
tp725
Rp726
ag6
(g7
g8
(F96.82979445468605
F275.3981823256644
tp727
tp728
Rp729
ag158
ag155
ag6
(g7
g8
(F134.87420661335017
F326.24867424734515
tp730
tp731
Rp732
ag212
ag215
ag6
(g7
g8
(F189.3729654327878
F310.91302712490625
tp733
tp734
Rp735
asg56
I00
sg57
(lp736
I01
aI01
aI01
aI01
aI01
aI01
aI01
aI01
aI01
aI01
aI01
aI01
asg59
(lp737
(iPoly
Border
p738
(dp739
g63
I00
sg64
I3
sg65
(iPoly
Border
p740
(dp741
g63
I00
sg64
I4
sg65
(iPoly
Border
p742
(dp743
g63
I00
sg64
I4
sg65
(iPoly
Border
p744
(dp745
g63
I00
sg64
I4
sg65
(iPoly
Border
p746
(dp747
g63
I00
sg64
I2
sg65
g738
sg78
g662
sg368
g744
sbsg78
g186
sg368
g742
sbsg78
g144
sg368
g740
sbsg78
(iPoly
Poly
p748
(dp749
g3
I00
sg4
I01
sg5
g6
(g7
g8
(F122.07370589817987
F242.6522748603716
tp750
tp751
Rp752
sg12
(lp753
g6
(g7
g8
(F188.56883132081495
F243.75118110813784
tp754
tp755
Rp756
ag723
ag726
ag6
(g7
g8
(F96.84947554452926
F275.39817487525454
tp757
tp758
Rp759
ag164
ag6
(g7
g8
(F77.92363461244344
F256.5633983348966
tp760
tp761
Rp762
ag43
ag6
(g7
g8
(F63.989548557752165
F225.78165266996004
tp763
tp764
Rp765
ag6
(g7
g8
(F114.5508363565738
F225.77920372764947
tp766
tp767
Rp768
ag6
(g7
g8
(F122.07370589817987
F218.25757970700806
tp769
tp770
Rp771
ag6
(g7
g8
(F164.1372136861754
F218.22429593890857
tp772
tp773
Rp774
ag6
(g7
g8
(F188.56753412957735
F242.6522748603716
tp775
tp776
Rp777
asg56
I00
sg57
(lp778
I01
aI01
aI01
aI01
aI01
aI01
aI01
aI01
aI01
aI01
aI01
aI01
asg59
(lp779
(iPoly
Border
p780
(dp781
g63
I00
sg64
I4
sg65
(iPoly
Border
p782
(dp783
g63
I00
sg64
I3
sg65
(iPoly
Border
p784
(dp785
g63
I00
sg64
I3
sg65
(iPoly
Border
p786
(dp787
g63
I00
sg64
I4
sg65
(iPoly
Border
p788
(dp789
g63
I00
sg64
I3
sg65
g780
sg78
(iPoly
Poly
p790
(dp791
g3
I00
sg4
I01
sg5
g6
(g7
g8
(F227.95515302607635
F215.54866351775019
tp792
tp793
Rp794
sg12
(lp795
g6
(g7
g8
(F221.31733985309083
F278.9840482359169
tp796
tp797
Rp798
ag676
ag679
ag6
(g7
g8
(F236.21409381472313
F276.0590490417389
tp799
tp800
Rp801
ag638
ag6
(g7
g8
(F265.8753209571774
F223.21245479621453
tp802
tp803
Rp804
ag6
(g7
g8
(F265.88165673624536
F217.1104884615224
tp805
tp806
Rp807
ag6
(g7
g8
(F267.4432388874836
F215.54866351775019
tp808
tp809
Rp810
ag6
(g7
g8
(F267.4521653941273
F185.651767717988
tp811
tp812
Rp813
ag6
(g7
g8
(F249.80292829567452
F185.64576965839643
tp814
tp815
Rp816
ag6
(g7
g8
(F241.73848137058002
F177.57598329661886
tp817
tp818
Rp819
ag6
(g7
g8
(F227.95515302607635
F177.58068245685877
tp820
tp821
Rp822
ag6
(g7
g8
(F205.46288156131334
F200.07067992535224
tp823
tp824
Rp825
ag6
(g7
g8
(F178.33534981628787
F200.07323326571017
tp826
tp827
Rp828
ag6
(g7
g8
(F178.33480926053412
F201.38450857428592
tp829
tp830
Rp831
ag6
(g7
g8
(F164.171180122116
F215.54866351775019
tp832
tp833
Rp834
ag6
(g7
g8
(F164.16908026736607
F218.25615946584955
tp835
tp836
Rp837
ag777
ag6
(g7
g8
(F188.56887480665574
F243.7880198261148
tp838
tp839
Rp840
ag717
asg56
I00
sg57
(lp841
I01
aI01
aI01
aI01
aI01
aI01
aI01
aI01
aI01
aI01
aI01
aI01
aI01
aI01
aI01
aI01
aI01
aI01
aI01
aI01
asg59
(lp842
(iPoly
Border
p843
(dp844
g63
I00
sg64
I4
sg65
(iPoly
Border
p845
(dp846
g63
I00
sg64
I3
sg65
(iPoly
Border
p847
(dp848
g63
I00
sg64
I4
sg65
(iPoly
Border
p849
(dp850
g63
I00
sg64
I3
sg65
(iPoly
Border
p851
(dp852
g63
I00
sg64
I4
sg65
(iPoly
Border
p853
(dp854
g63
I00
sg64
I4
sg65
(iPoly
Border
p855
(dp856
g63
I00
sg64
I3
sg65
(iPoly
Border
p857
(dp858
g63
I00
sg64
I3
sg65
g843
sg78
g706
sg368
g855
sbsg78
g748
sg368
g853
sbsg78
(iPoly
Poly
p859
(dp860
g3
I00
sg4
I01
sg5
g6
(g7
g8
(F114.5508363565738
F201.38450857428592
tp861
tp862
Rp863
sg12
(lp864
g6
(g7
g8
(F178.335356513124
F200.0569881405224
tp865
tp866
Rp867
ag6
(g7
g8
(F140.34974543385275
F162.1026988644608
tp868
tp869
Rp870
ag6
(g7
g8
(F140.34078483254913
F150.54061315833812
tp871
tp872
Rp873
ag6
(g7
g8
(F123.06188959990463
F133.25785540907367
tp874
tp875
Rp876
ag6
(g7
g8
(F114.5508363565738
F133.25820531743568
tp877
tp878
Rp879
ag6
(g7
g8
(F99.95915845561868
F147.83802825193322
tp880
tp881
Rp882
ag6
(g7
g8
(F93.41795500092302
F147.84386765712094
tp883
tp884
Rp885
ag6
(g7
g8
(F93.40270548535847
F167.07017016336096
tp886
tp887
Rp888
ag6
(g7
g8
(F59.097266886714976
F201.38450857428592
tp889
tp890
Rp891
ag6
(g7
g8
(F59.09591867582889
F221.35049897604296
tp892
tp893
Rp894
ag37
ag6
(g7
g8
(F64.01848783400305
F225.7816512682826
tp895
tp896
Rp897
ag768
ag771
ag6
(g7
g8
(F164.16910499935793
F218.22427070413553
tp898
tp899
Rp900
ag834
ag831
asg56
I00
sg57
(lp901
I01
aI01
aI01
aI01
aI01
aI01
aI00
aI00
aI00
aI01
aI01
aI01
aI01
aI01
aI01
aI01
aI01
asg59
(lp902
(iPoly
Border
p903
(dp904
g63
I00
sg64
I3
sg65
(iPoly
Border
p905
(dp906
g63
I00
sg64
I2
sg65
(iPoly
Border
p907
(dp908
g63
I00
sg64
I4
sg65
(iPoly
Border
p909
(dp910
g63
I00
sg64
I4
sg65
(iPoly
Border
p911
(dp912
g63
I00
sg64
I3
sg65
(iPoly
Border
p913
(dp914
g63
I00
sg64
I4
sg65
(iPoly
Border
p915
(dp916
g63
I00
sg64
I4
sg65
g903
sg78
g790
sg368
g913
sbsg78
g748
sg368
g911
sbsg78
g1
sg368
g909
sbsg78
(iPoly
Poly
p917
(dp918
g4
I00
sg59
(lp919
(iPoly
Border
p920
(dp921
g368
Nsg369
(lp922
g6
(g7
g8
(I-512
F213.96673921557576
tp923
tp924
Rp925
ag6
(g7
g8
(F21.05738144870871
F214.39883748732086
tp926
tp927
Rp928
ag6
(g7
g8
(F37.94913601549964
F231.30420655011454
tp929
tp930
Rp931
ag6
(g7
g8
(F49.12855776990196
F231.31564966984234
tp932
tp933
Rp934
asg78
(iPoly
Poly
p935
(dp936
g4
I00
sg59
(lp937
(iPoly
Border
p938
(dp939
g368
Nsg369
(lp940
g6
(g7
g8
(I-512
F343.59561137130885
tp941
tp942
Rp943
ag6
(g7
g8
(F1.6476422028567472
F344.23294956557254
tp944
tp945
Rp946
ag6
(g7
g8
(F21.05738144870871
F363.6600082549403
tp947
tp948
Rp949
ag6
(g7
g8
(F31.450798024991876
F363.67141879678627
tp950
tp951
Rp952
asg78
(iPoly
Poly
p953
(dp954
g4
I00
sg59
(lp955
(iPoly
Border
p956
(dp957
g368
Nsg369
(lp958
g6
(g7
g8
(I-512
F469.44135656193686
tp959
tp960
Rp961
ag6
(g7
g8
(F1.6476422028567472
F469.15974611274873
tp962
tp963
Rp964
ag6
(g7
g8
(F3.4675144483272016
F467.3401390965719
tp965
tp966
Rp967
ag6
(g7
g8
(F22.53871515540384
F467.33181188739144
tp968
tp969
Rp970
asg78
(iPoly
Poly
p971
(dp972
g4
I00
sg59
(lp973
(iPoly
Border
p974
(dp975
g368
Nsg369
(lp976
g961
ag964
ag967
ag6
(g7
g8
(F22.512181953167627
F467.33182347279336
tp977
tp978
Rp979
asg78
g953
sg63
I00
sg65
(iPoly
Border
p980
(dp981
g368
g974
sg369
(lp982
g979
ag6
(g7
g8
(F22.513452409049606
F468.5045782011628
tp983
tp984
Rp985
ag6
(g7
g8
(F61.24895551664437
F507.2398012628822
tp986
tp987
Rp988
ag6
(g7
g8
(F61.252249315583086
I512
tp989
tp990
Rp991
asg78
(iPoly
Poly
p992
(dp993
g4
I00
sg59
(lp994
(iPoly
Border
p995
(dp996
g368
Nsg369
(lp997
g6
(g7
g8
(F100.61186603615604
I512
tp998
tp999
Rp1000
ag6
(g7
g8
(F100.61329636465234
F510.71527579679264
tp1001
tp1002
Rp1003
ag6
(g7
g8
(F142.7979664705016
F468.5045782011628
tp1004
tp1005
Rp1006
ag6
(g7
g8
(F142.80752366944583
F456.7917440080466
tp1007
tp1008
Rp1009
asg78
(iPoly
Poly
p1010
(dp1011
g4
I00
sg59
(lp1012
(iPoly
Border
p1013
(dp1014
g368
Nsg369
(lp1015
g1000
ag1003
ag1006
ag6
(g7
g8
(F142.80749715047946
F456.82424435233145
tp1016
tp1017
Rp1018
asg78
g992
sg63
I00
sg65
(iPoly
Border
p1019
(dp1020
g368
g1013
sg369
(lp1021
g1018
ag6
(g7
g8
(F161.38764590159843
F456.8161437749764
tp1022
tp1023
Rp1024
ag6
(g7
g8
(F163.11636935778716
F455.08835881140106
tp1025
tp1026
Rp1027
ag6
(g7
g8
(F166.90208227320704
F455.08414726575074
tp1028
tp1029
Rp1030
asg78
(iPoly
Poly
p1031
(dp1032
g3
I01
sg4
I01
sg5
g6
(g7
g8
(F161.38764590159843
F401.1892267895849
tp1033
tp1034
Rp1035
sg12
(lp1036
g6
(g7
g8
(F166.9487255348881
F453.0012217895457
tp1037
tp1038
Rp1039
ag6
(g7
g8
(F166.94684430833757
F455.08409746869575
tp1040
tp1041
Rp1042
ag1027
ag1024
ag6
(g7
g8
(F142.8400415230807
F456.8242301636287
tp1043
tp1044
Rp1045
ag6
(g7
g8
(F129.98896320212117
F443.98567893511034
tp1046
tp1047
Rp1048
ag99
ag96
ag6
(g7
g8
(F117.75273878312895
F377.11258117533055
tp1049
tp1050
Rp1051
ag200
ag197
ag6
(g7
g8
(F204.66926766279337
F384.7368702306234
tp1052
tp1053
Rp1054
ag265
ag262
ag6
(g7
g8
(F182.3996279980628
F437.5349293832266
tp1055
tp1056
Rp1057
asg56
I00
sg57
(lp1058
I00
aI00
aI00
aI00
aI00
aI00
aI01
aI01
aI01
aI01
aI01
aI01
aI01
aI01
aI01
asg59
(lp1059
(iPoly
Border
p1060
(dp1061
g63
I00
sg64
I4
sg65
(iPoly
Border
p1062
(dp1063
g63
I00
sg64
I4
sg65
(iPoly
Border
p1064
(dp1065
g63
I00
sg64
I4
sg65
(iPoly
Border
p1066
(dp1067
g63
I00
sg64
I2
sg65
(iPoly
Border
p1068
(dp1069
g63
I00
sg64
I4
sg65
(iPoly
Border
p1070
(dp1071
g63
I00
sg64
I3
sg65
g1060
sg78
g363
sg368
g1068
sbsg78
g1010
sg368
g1066
sbsg78
g992
sg368
g1064
sbsg78
g79
sg368
g1062
sbsg78
g186
sg368
g1060
sbsg78
g242
sg368
g1070
sbag1062
ag1064
ag1066
ag1068
ag1070
asbsg63
I00
sg65
(iPoly
Border
p1072
(dp1073
g368
g1019
sg369
(lp1074
g1030
ag6
(g7
g8
(F222.56878859752425
F510.71527579679264
tp1075
tp1076
Rp1077
ag6
(g7
g8
(F222.56888943247094
I512
tp1078
tp1079
Rp1080
asg78
g363
sg63
I00
sg65
Nsbsbsbag1019
ag1072
asg5
g6
(g7
g8
(F163.11636935778716
F510.71527579679264
tp1081
tp1082
Rp1083
sg56
I00
sbsg63
I00
sg65
(iPoly
Border
p1084
(dp1085
g368
g995
sg369
(lp1086
g1009
ag6
(g7
g8
(F130.01944311321847
F444.01612913471934
tp1087
tp1088
Rp1089
asg78
g1031
sg63
I00
sg65
(iPoly
Border
p1090
(dp1091
g368
g1084
sg369
(lp1092
g1089
ag105
ag108
ag6
(g7
g8
(F51.940590338182325
F437.90293454484686
tp1093
tp1094
Rp1095
asg78
g79
sg63
I00
sg65
(iPoly
Border
p1096
(dp1097
g368
g1090
sg369
(lp1098
g1095
ag6
(g7
g8
(F22.512210679526337
F467.3583407045087
tp1099
tp1100
Rp1101
asg78
g953
sg63
I00
sg65
(iPoly
Border
p1102
(dp1103
g368
g1096
sg369
(lp1104
g1101
ag985
ag988
ag991
asg78
g971
sg63
I00
sg65
Nsbsbsbsbsbag1084
ag1090
ag1096
ag1102
asg5
g6
(g7
g8
(F80.29489347736683
F468.5045782011628
tp1105
tp1106
Rp1107
sg56
I00
sbsg63
I00
sg65
Nsbsbag980
asg5
g6
(g7
g8
(F3.4675144483272016
F507.2398012628822
tp1108
tp1109
Rp1110
sg56
I00
sbsg63
I00
sg65
(iPoly
Border
p1111
(dp1112
g368
g956
sg369
(lp1113
g970
ag6
(g7
g8
(F51.94338702508768
F437.9001352895139
tp1114
tp1115
Rp1116
asg78
g992
sg63
I00
sg65
(iPoly
Border
p1117
(dp1118
g368
g1111
sg369
(lp1119
g1116
ag114
ag117
ag6
(g7
g8
(F36.03117067107743
F368.18826848676065
tp1120
tp1121
Rp1122
asg78
g79
sg63
I00
sg65
(iPoly
Border
p1123
(dp1124
g368
g1117
sg369
(lp1125
g1122
ag6
(g7
g8
(F31.51788186635861
F363.67149244561705
tp1126
tp1127
Rp1128
asg78
g1
sg63
I00
sg65
(iPoly
Border
p1129
(dp1130
g368
g1123
sg369
(lp1131
g1128
ag949
ag946
ag943
asg78
g935
sg63
I00
sg65
Nsbsbsbsbsbag1111
ag1117
ag1123
ag1129
asg5
g6
(g7
g8
(F1.6476422028567472
F429.2600839464384
tp1132
tp1133
Rp1134
sg56
I00
sbsg63
I00
sg65
(iPoly
Border
p1135
(dp1136
g368
g938
sg369
(lp1137
g952
ag25
ag28
ag6
(g7
g8
(F49.20403686224817
F231.3157269293205
tp1138
tp1139
Rp1140
asg78
g1
sg63
I00
sg65
(iPoly
Border
p1141
(dp1142
g368
g1135
sg369
(lp1143
g1140
ag931
ag928
ag925
asg78
g917
sg63
I00
sg65
Nsbsbsbag1135
ag1141
asg5
g6
(g7
g8
(F21.05738144870871
F278.63287387407445
tp1144
tp1145
Rp1146
sg56
I00
sbsg63
I00
sg65
(iPoly
Border
p1147
(dp1148
g368
g920
sg369
(lp1149
g934
ag6
(g7
g8
(F59.095918355159235
F221.35524785279938
tp1150
tp1151
Rp1152
asg78
g1
sg63
I00
sg65
(iPoly
Border
p1153
(dp1154
g368
g1147
sg369
(lp1155
g1152
ag891
ag888
ag6
(g7
g8
(F93.41793432482446
F147.86993569342962
tp1156
tp1157
Rp1158
asg78
g859
sg63
I00
sg65
(iPoly
Border
p1159
(dp1160
g368
g1153
sg369
(lp1161
g1158
ag6
(g7
g8
(F84.9568257595099
F139.40356966238127
tp1162
tp1163
Rp1164
asg78
(iPoly
Poly
p1165
(dp1166
g3
I00
sg4
I01
sg5
g6
(g7
g8
(F99.95915845561868
F79.71172499508299
tp1167
tp1168
Rp1169
sg12
(lp1170
g6
(g7
g8
(F148.36058175558276
F95.26591648361088
tp1171
tp1172
Rp1173
ag6
(g7
g8
(F148.34983853995092
F79.71172499508299
tp1174
tp1175
Rp1176
ag6
(g7
g8
(F114.59386648125772
F45.98650215978806
tp1177
tp1178
Rp1179
ag6
(g7
g8
(F114.59075536833447
F43.140848708823675
tp1180
tp1181
Rp1182
ag6
(g7
g8
(F108.36923890667222
F36.91616077243314
tp1183
tp1184
Rp1185
ag6
(g7
g8
(F99.95915845561868
F36.92441242569839
tp1186
tp1187
Rp1188
ag6
(g7
g8
(F58.02028755031434
F78.85848804654677
tp1189
tp1190
Rp1191
ag6
(g7
g8
(F29.254023770326466
F78.8821104524925
tp1192
tp1193
Rp1194
ag6
(g7
g8
(F29.254705660268773
F79.71172499508299
tp1195
tp1196
Rp1197
ag6
(g7
g8
(F85.02758108435006
F135.43486791612963
tp1198
tp1199
Rp1200
ag6
(g7
g8
(F85.02799676745107
F139.4747848937398
tp1201
tp1202
Rp1203
ag6
(g7
g8
(F93.39190571635783
F147.84389091160745
tp1204
tp1205
Rp1206
ag882
ag879
ag6
(g7
g8
(F123.04642612498593
F133.25785604481158
tp1207
tp1208
Rp1209
ag6
(g7
g8
(F123.0616239696474
F120.57913030105934
tp1210
tp1211
Rp1212
asg56
I00
sg57
(lp1213
I01
aI01
aI01
aI00
aI00
aI00
aI00
aI00
aI00
aI00
aI00
aI01
aI01
aI01
aI01
aI01
asg59
(lp1214
(iPoly
Border
p1215
(dp1216
g63
I00
sg64
I4
sg65
(iPoly
Border
p1217
(dp1218
g63
I00
sg64
I2
sg65
(iPoly
Border
p1219
(dp1220
g63
I00
sg64
I4
sg65
(iPoly
Border
p1221
(dp1222
g63
I00
sg64
I4
sg65
(iPoly
Border
p1223
(dp1224
g63
I00
sg64
I2
sg65
(iPoly
Border
p1225
(dp1226
g63
I00
sg64
I4
sg65
(iPoly
Border
p1227
(dp1228
g63
I00
sg64
I3
sg65
g1215
sg78
(iPoly
Poly
p1229
(dp1230
g3
I01
sg4
I01
sg5
g6
(g7
g8
(F187.00847886515933
F120.57913030105934
tp1231
tp1232
Rp1233
sg12
(lp1234
g6
(g7
g8
(F225.05625769664903
F120.57913030105934
tp1235
tp1236
Rp1237
ag6
(g7
g8
(F213.520107347766
F132.11562468913885
tp1238
tp1239
Rp1240
ag6
(g7
g8
(F205.46288156131334
F132.11919065813123
tp1241
tp1242
Rp1243
ag6
(g7
g8
(F187.00847886515933
F150.56263850738887
tp1244
tp1245
Rp1246
ag6
(g7
g8
(F140.40881247964504
F150.60865601230424
tp1247
tp1248
Rp1249
ag6
(g7
g8
(F123.0464446435804
F133.2424070001907
tp1250
tp1251
Rp1252
ag1212
ag6
(g7
g8
(F148.3248136411842
F95.3017047534392
tp1253
tp1254
Rp1255
ag6
(g7
g8
(F162.98454656559
F95.2877512921253
tp1256
tp1257
Rp1258
ag6
(g7
g8
(F187.00847886515933
F71.27788116872206
tp1259
tp1260
Rp1261
ag6
(g7
g8
(F213.41521994694406
F71.26253490884862
tp1262
tp1263
Rp1264
ag6
(g7
g8
(F225.0968528135248
F82.94708971265793
tp1265
tp1266
Rp1267
asg56
I00
sg57
(lp1268
I01
aI01
aI01
aI01
aI01
aI01
aI01
aI01
aI01
aI01
aI01
aI00
asg59
(lp1269
(iPoly
Border
p1270
(dp1271
g63
I00
sg64
I2
sg65
(iPoly
Border
p1272
(dp1273
g63
I00
sg64
I4
sg65
(iPoly
Border
p1274
(dp1275
g63
I00
sg64
I3
sg65
(iPoly
Border
p1276
(dp1277
g63
I00
sg64
I2
sg65
(iPoly
Border
p1278
(dp1279
g63
I00
sg64
I4
sg65
(iPoly
Border
p1280
(dp1281
g63
I00
sg64
I3
sg65
g1270
sg78
(iPoly
Poly
p1282
(dp1283
g3
I00
sg4
I01
sg5
g6
(g7
g8
(F249.80292829567452
F133.88063520853638
tp1284
tp1285
Rp1286
sg12
(lp1287
g6
(g7
g8
(F301.64752882024226
F151.45444781295592
tp1288
tp1289
Rp1290
ag6
(g7
g8
(F301.6429073899324
F133.88063520853638
tp1291
tp1292
Rp1293
ag6
(g7
g8
(F300.46130686015044
F132.69955433177594
tp1294
tp1295
Rp1296
ag6
(g7
g8
(F300.44214572691607
F106.20030339585617
tp1297
tp1298
Rp1299
ag6
(g7
g8
(F273.0430698562925
F78.7895452642409
tp1300
tp1301
Rp1302
ag6
(g7
g8
(F249.80292829567452
F78.81463873020323
tp1303
tp1304
Rp1305
ag6
(g7
g8
(F245.71266244637144
F82.9041108590036
tp1306
tp1307
Rp1308
ag6
(g7
g8
(F225.09689245241725
F82.91034410076998
tp1309
tp1310
Rp1311
ag1237
ag6
(g7
g8
(F213.50970248813454
F132.12602985907134
tp1312
tp1313
Rp1314
ag6
(g7
g8
(F213.51017050091852
F133.88063520853638
tp1315
tp1316
Rp1317
ag6
(g7
g8
(F241.7556393560693
F162.1026988644608
tp1318
tp1319
Rp1320
ag6
(g7
g8
(F241.77167300361086
F177.60919690569153
tp1321
tp1322
Rp1323
ag816
ag6
(g7
g8
(F267.4216573872856
F185.65175734990004
tp1324
tp1325
Rp1326
asg56
I00
sg57
(lp1327
I01
aI01
aI01
aI00
aI00
aI00
aI00
aI01
aI01
aI01
aI01
aI01
aI01
aI01
aI01
asg59
(lp1328
(iPoly
Border
p1329
(dp1330
g63
I00
sg64
I4
sg65
(iPoly
Border
p1331
(dp1332
g63
I00
sg64
I2
sg65
(iPoly
Border
p1333
(dp1334
g63
I00
sg64
I4
sg65
(iPoly
Border
p1335
(dp1336
g63
I00
sg64
I3
sg65
(iPoly
Border
p1337
(dp1338
g63
I00
sg64
I4
sg65
(iPoly
Border
p1339
(dp1340
g63
I00
sg64
I3
sg65
(iPoly
Border
p1341
(dp1342
g63
I00
sg64
I2
sg65
g1329
sg78
(iPoly
Poly
p1343
(dp1344
g3
I00
sg4
I01
sg5
g6
(g7
g8
(F305.36974259765265
F217.1104884615224
tp1345
tp1346
Rp1347
sg12
(lp1348
g6
(g7
g8
(F298.0525899199612
F239.45388157705173
tp1349
tp1350
Rp1351
ag6
(g7
g8
(F305.36974259765265
F239.4503979464277
tp1352
tp1353
Rp1354
ag6
(g7
g8
(F319.7052718636993
F225.12125572492766
tp1355
tp1356
Rp1357
ag6
(g7
g8
(F335.96622287106175
F225.11290711184898
tp1358
tp1359
Rp1360
ag6
(g7
g8
(F335.9693310346063
F221.7816845482071
tp1361
tp1362
Rp1363
ag6
(g7
g8
(F340.63741623525357
F217.1104884615224
tp1364
tp1365
Rp1366
ag6
(g7
g8
(F340.659578901539
F186.73729727867266
tp1367
tp1368
Rp1369
ag6
(g7
g8
(F305.36974259765265
F151.422953843995
tp1370
tp1371
Rp1372
ag6
(g7
g8
(F301.68210475824645
F151.41990072898244
tp1373
tp1374
Rp1375
ag6
(g7
g8
(F267.4521745013083
F185.62126570277124
tp1376
tp1377
Rp1378
ag810
ag807
ag6
(g7
g8
(F265.8753401357795
F223.19398395259887
tp1379
tp1380
Rp1381
ag632
asg56
I00
sg57
(lp1382
I01
aI01
aI01
aI01
aI01
aI01
aI01
aI01
aI01
aI01
aI01
aI01
aI01
aI01
asg59
(lp1383
(iPoly
Border
p1384
(dp1385
g63
I00
sg64
I4
sg65
(iPoly
Border
p1386
(dp1387
g63
I00
sg64
I4
sg65
(iPoly
Border
p1388
(dp1389
g63
I00
sg64
I3
sg65
(iPoly
Border
p1390
(dp1391
g63
I00
sg64
I2
sg65
(iPoly
Border
p1392
(dp1393
g63
I00
sg64
I4
sg65
(iPoly
Border
p1394
(dp1395
g63
I00
sg64
I3
sg65
g1384
sg78
g609
sg368
g1392
sbsg78
g790
sg368
g1390
sbsg78
g1282
sg368
g1388
sbsg78
(iPoly
Poly
p1396
(dp1397
g3
I00
sg4
I01
sg5
g6
(g7
g8
(F352.30128595440834
F132.69955433177594
tp1398
tp1399
Rp1400
sg12
(lp1401
g6
(g7
g8
(F383.32284811013255
F167.7601813975862
tp1402
tp1403
Rp1404
ag6
(g7
g8
(F383.33011966209017
F146.0643861617404
tp1405
tp1406
Rp1407
ag6
(g7
g8
(F396.69428839071
F132.69955433177594
tp1408
tp1409
Rp1410
ag6
(g7
g8
(F396.6958611146572
F128.6687300321091
tp1411
tp1412
Rp1413
ag6
(g7
g8
(F378.0015098756868
F128.64770833344778
tp1414
tp1415
Rp1416
ag6
(g7
g8
(F352.30128595440834
F102.93150701126586
tp1417
tp1418
Rp1419
ag6
(g7
g8
(F327.99372171155767
F102.92054079044453
tp1420
tp1421
Rp1422
ag6
(g7
g8
(F324.7011271209797
F106.2128329765315
tp1423
tp1424
Rp1425
ag6
(g7
g8
(F300.4421633184144
F106.22463189052033
tp1426
tp1427
Rp1428
ag1296
ag1293
ag6
(g7
g8
(F301.64751972777754
F151.41987209491361
tp1429
tp1430
Rp1431
ag1372
ag6
(g7
g8
(F340.6307349102943
F186.70843325663324
tp1432
tp1433
Rp1434
ag6
(g7
g8
(F352.30128595440834
F186.70611868056147
tp1435
tp1436
Rp1437
ag6
(g7
g8
(F371.2370046722072
F167.77512019942156
tp1438
tp1439
Rp1440
asg56
I00
sg57
(lp1441
I00
aI00
aI00
aI01
aI01
aI01
aI00
aI00
aI01
aI01
aI01
aI01
aI01
aI01
aI01
aI01
asg59
(lp1442
(iPoly
Border
p1443
(dp1444
g63
I00
sg64
I4
sg65
(iPoly
Border
p1445
(dp1446
g63
I00
sg64
I4
sg65
(iPoly
Border
p1447
(dp1448
g63
I00
sg64
I3
sg65
(iPoly
Border
p1449
(dp1450
g63
I00
sg64
I4
sg65
(iPoly
Border
p1451
(dp1452
g63
I00
sg64
I3
sg65
(iPoly
Border
p1453
(dp1454
g63
I00
sg64
I4
sg65
g1443
sg78
(iPoly
Poly
p1455
(dp1456
g3
I00
sg4
I01
sg5
g6
(g7
g8
(F371.2370046722072
F221.7816845482071
tp1457
tp1458
Rp1459
sg12
(lp1460
g6
(g7
g8
(F416.49943274858526
F252.63025175616426
tp1461
tp1462
Rp1463
ag6
(g7
g8
(F416.5150064259633
F234.9619118295832
tp1464
tp1465
Rp1466
ag6
(g7
g8
(F423.1735896884877
F228.29932216344912
tp1467
tp1468
Rp1469
ag6
(g7
g8
(F423.1662750843272
F221.7816845482071
tp1470
tp1471
Rp1472
ag6
(g7
g8
(F388.0843443288039
F186.7160373997691
tp1473
tp1474
Rp1475
ag6
(g7
g8
(F388.0738333894224
F172.51438348045332
tp1476
tp1477
Rp1478
ag6
(g7
g8
(F383.3206432741454
F167.76018412289105
tp1479
tp1480
Rp1481
ag1440
ag1437
ag6
(g7
g8
(F340.65959996717413
F186.7084275319361
tp1482
tp1483
Rp1484
ag1366
ag1363
ag6
(g7
g8
(F335.96621485793037
F225.1214953098908
tp1485
tp1486
Rp1487
ag6
(g7
g8
(F358.3176280825242
F247.461165209833
tp1488
tp1489
Rp1490
ag6
(g7
g8
(F358.31865323178454
F275.80786150994425
tp1491
tp1492
Rp1493
ag534
ag531
ag6
(g7
g8
(F412.87608797454226
F256.2505801560932
tp1494
tp1495
Rp1496
asg56
I00
sg57
(lp1497
I00
aI00
aI00
aI00
aI00
aI00
aI01
aI01
aI01
aI01
aI01
aI01
aI01
aI01
aI01
aI01
aI01
aI00
asg59
(lp1498
(iPoly
Border
p1499
(dp1500
g63
I00
sg64
I3
sg65
(iPoly
Border
p1501
(dp1502
g63
I00
sg64
I4
sg65
(iPoly
Border
p1503
(dp1504
g63
I00
sg64
I2
sg65
(iPoly
Border
p1505
(dp1506
g63
I00
sg64
I4
sg65
(iPoly
Border
p1507
(dp1508
g63
I00
sg64
I4
sg65
(iPoly
Border
p1509
(dp1510
g63
I00
sg64
I3
sg65
(iPoly
Border
p1511
(dp1512
g63
I00
sg64
I4
sg65
(iPoly
Border
p1513
(dp1514
g63
I00
sg64
I2
sg65
g1499
sg78
(iPoly
Poly
p1515
(dp1516
g4
I00
sg59
(lp1517
(iPoly
Border
p1518
(dp1519
g368
Nsg369
(lp1520
g6
(g7
g8
(I512
F285.28044188337583
tp1521
tp1522
Rp1523
ag6
(g7
g8
(F474.9653098176443
F285.24407759066963
tp1524
tp1525
Rp1526
ag6
(g7
g8
(F442.3478659263091
F252.5944862746163
tp1527
tp1528
Rp1529
ag6
(g7
g8
(F416.5560151293294
F252.5737164793087
tp1530
tp1531
Rp1532
asg78
(iPoly
Poly
p1533
(dp1534
g4
I00
sg59
(lp1535
(iPoly
Border
p1536
(dp1537
g368
Nsg369
(lp1538
g6
(g7
g8
(I512
F193.35734601090772
tp1539
tp1540
Rp1541
ag6
(g7
g8
(F474.9653098176443
F193.36920063423574
tp1542
tp1543
Rp1544
ag6
(g7
g8
(F440.0136147409238
F228.30874859511655
tp1545
tp1546
Rp1547
ag6
(g7
g8
(F423.15268644985804
F228.32023797935048
tp1548
tp1549
Rp1550
asg78
(iPoly
Poly
p1551
(dp1552
g4
I00
sg59
(lp1553
(iPoly
Border
p1554
(dp1555
g368
Nsg369
(lp1556
g6
(g7
g8
(I512
F160.17621350809347
tp1557
tp1558
Rp1559
ag6
(g7
g8
(F440.0136147409238
F160.249202725741
tp1560
tp1561
Rp1562
ag6
(g7
g8
(F427.72312209839185
F172.53122083576852
tp1563
tp1564
Rp1565
ag6
(g7
g8
(F388.0738480138529
F172.5341429988925
tp1566
tp1567
Rp1568
asg78
(iPoly
Poly
p1569
(dp1570
g4
I00
sg59
(lp1571
(iPoly
Border
p1572
(dp1573
g368
Nsg369
(lp1574
g6
(g7
g8
(I512
F142.79786659326174
tp1575
tp1576
Rp1577
ag6
(g7
g8
(F455.9690791280385
F142.75752942823397
tp1578
tp1579
Rp1580
ag6
(g7
g8
(F427.72312209839185
F114.4836003925285
tp1581
tp1582
Rp1583
ag6
(g7
g8
(F410.8649531624449
F114.46787977301518
tp1584
tp1585
Rp1586
asg78
(iPoly
Poly
p1587
(dp1588
g4
I00
sg59
(lp1589
(iPoly
Border
p1590
(dp1591
g368
Nsg369
(lp1592
g1577
ag1580
ag1583
ag6
(g7
g8
(F410.8409415835845
F114.46785738168096
tp1593
tp1594
Rp1595
asg78
g1569
sg63
I00
sg65
(iPoly
Border
p1596
(dp1597
g368
g1590
sg369
(lp1598
g1595
ag6
(g7
g8
(F410.84218139869915
F111.1767436590221
tp1599
tp1600
Rp1601
ag6
(g7
g8
(F423.12840760502615
F98.87966101293776
tp1602
tp1603
Rp1604
ag6
(g7
g8
(F423.1436757230044
F71.08274066409098
tp1605
tp1606
Rp1607
asg78
(iPoly
Poly
p1608
(dp1609
g3
I01
sg4
I01
sg5
g6
(g7
g8
(F378.0015098756868
F98.87966101293776
tp1610
tp1611
Rp1612
sg12
(lp1613
g1604
ag1601
ag6
(g7
g8
(F410.84093252448764
F114.4919049332852
tp1614
tp1615
Rp1616
ag6
(g7
g8
(F396.6668086261969
F128.66869736274015
tp1617
tp1618
Rp1619
ag1416
ag1419
ag6
(g7
g8
(F327.9817072093809
F102.92053537016949
tp1620
tp1621
Rp1622
ag6
(g7
g8
(F327.98667148208506
F98.87966101293776
tp1623
tp1624
Rp1625
ag6
(g7
g8
(F373.1246381387251
F53.72056014898312
tp1626
tp1627
Rp1628
ag6
(g7
g8
(F378.0015098756868
F53.723439037950605
tp1629
tp1630
Rp1631
ag6
(g7
g8
(F385.3233523554339
F61.046845091140106
tp1632
tp1633
Rp1634
ag6
(g7
g8
(F413.1404673261032
F61.076601373517214
tp1635
tp1636
Rp1637
ag6
(g7
g8
(F423.1436784969195
F71.07769051330288
tp1638
tp1639
Rp1640
asg56
I00
sg57
(lp1641
I00
aI00
aI00
aI00
aI01
aI01
aI01
aI00
aI00
aI00
aI00
aI00
aI00
asg59
(lp1642
(iPoly
Border
p1643
(dp1644
g63
I00
sg64
I2
sg65
(iPoly
Border
p1645
(dp1646
g63
I00
sg64
I4
sg65
(iPoly
Border
p1647
(dp1648
g63
I00
sg64
I3
sg65
(iPoly
Border
p1649
(dp1650
g63
I00
sg64
I4
sg65
(iPoly
Border
p1651
(dp1652
g63
I00
sg64
I2
sg65
(iPoly
Border
p1653
(dp1654
g63
I00
sg64
I4
sg65
g1643
sg78
g1587
sg368
g1651
sbsg78
g1569
sg368
g1649
sbsg78
g1396
sg368
g1647
sbsg78
(iPoly
Poly
p1655
(dp1656
g4
I00
sg59
(lp1657
(iPoly
Border
p1658
(dp1659
g368
Nsg369
(lp1660
g6
(g7
g8
(F297.8394304027696
I-512
tp1661
tp1662
Rp1663
ag6
(g7
g8
(F297.34768910348953
F27.838114380670458
tp1664
tp1665
Rp1666
ag6
(g7
g8
(F273.06610046386163
F52.12848769209727
tp1667
tp1668
Rp1669
ag6
(g7
g8
(F273.0351008049576
F78.78157281510755
tp1670
tp1671
Rp1672
asg78
(iPoly
Poly
p1673
(dp1674
g4
I00
sg59
(lp1675
(iPoly
Border
p1676
(dp1677
g368
Nsg369
(lp1678
g6
(g7
g8
(F198.4953470508638
I-512
tp1679
tp1680
Rp1681
ag6
(g7
g8
(F198.0947327568775
F9.200517456450216
tp1682
tp1683
Rp1684
ag6
(g7
g8
(F195.2593576093992
F12.037772818833975
tp1685
tp1686
Rp1687
asg78
(iPoly
Poly
p1688
(dp1689
g4
I00
sg59
(lp1690
(iPoly
Border
p1691
(dp1692
g368
Nsg369
(lp1693
g6
(g7
g8
(F81.3049086685676
I-512
tp1694
tp1695
Rp1696
ag6
(g7
g8
(F81.49858940140619
F9.200517456450216
tp1697
tp1698
Rp1699
ag6
(g7
g8
(F108.37325520274499
F36.07117547716217
tp1700
tp1701
Rp1702
ag6
(g7
g8
(F108.37357445190412
F36.920498527748734
tp1703
tp1704
Rp1705
asg78
(iPoly
Poly
p1706
(dp1707
g4
I00
sg59
(lp1708
(iPoly
Border
p1709
(dp1710
g368
Nsg369
(lp1711
g6
(g7
g8
(I-512
F63.54990503578944
tp1712
tp1713
Rp1714
ag6
(g7
g8
(F14.323128289000149
F63.90121067137565
tp1715
tp1716
Rp1717
ag6
(g7
g8
(F29.30177352420665
F78.88207124114136
tp1718
tp1719
Rp1720
asg78
(iPoly
Poly
p1721
(dp1722
g4
I00
sg59
(lp1723
(iPoly
Border
p1724
(dp1725
g368
Nsg369
(lp1726
g1714
ag1717
ag6
(g7
g8
(F29.25398445273628
F78.83427510168988
tp1727
tp1728
Rp1729
asg78
g1706
sg63
I00
sg65
(iPoly
Border
p1730
(dp1731
g368
g1724
sg369
(lp1732
g1729
ag1197
ag1200
ag6
(g7
g8
(F85.02798943242333
F139.40349764865826
tp1733
tp1734
Rp1735
asg78
g1165
sg63
I00
sg65
(iPoly
Border
p1736
(dp1737
g368
g1730
sg369
(lp1738
g1735
ag6
(g7
g8
(F37.94913601549964
F139.4511388589817
tp1739
tp1740
Rp1741
ag6
(g7
g8
(F14.323128289000149
F163.0538992205089
tp1742
tp1743
Rp1744
ag6
(g7
g8
(I-512
F163.69407066830115
tp1745
tp1746
Rp1747
asg78
g917
sg63
I00
sg65
Nsbsbsbag1730
ag1736
asg5
g6
(g7
g8
(F14.323128289000149
F135.43486791612963
tp1748
tp1749
Rp1750
sg56
I00
sbsg63
I00
sg65
(iPoly
Border
p1751
(dp1752
g368
g1709
sg369
(lp1753
g1720
ag1191
ag1188
ag6
(g7
g8
(F108.37357281980162
F36.91615652016128
tp1754
tp1755
Rp1756
asg78
g1165
sg63
I00
sg65
(iPoly
Border
p1757
(dp1758
g368
g1751
sg369
(lp1759
g1756
ag1702
ag1699
ag1696
asg78
g1688
sg63
I00
sg65
Nsbsbsbag1751
ag1757
asg5
g6
(g7
g8
(F58.02028755031434
F36.07117547716217
tp1760
tp1761
Rp1762
sg56
I00
sbsg63
I00
sg65
(iPoly
Border
p1763
(dp1764
g368
g1691
sg369
(lp1765
g1705
ag6
(g7
g8
(F114.6099548527833
F43.160057980384714
tp1766
tp1767
Rp1768
asg78
g1165
sg63
I00
sg65
(iPoly
Border
p1769
(dp1770
g368
g1763
sg369
(lp1771
g1768
ag6
(g7
g8
(F131.8515570538368
F43.15690892440466
tp1772
tp1773
Rp1774
ag6
(g7
g8
(F162.98454656559
F12.030110691833613
tp1775
tp1776
Rp1777
ag6
(g7
g8
(F195.2944727523677
F12.002634390052553
tp1778
tp1779
Rp1780
asg78
(iPoly
Poly
p1781
(dp1782
g3
I01
sg4
I01
sg5
g6
(g7
g8
(F162.98454656559
F45.98650215978806
tp1783
tp1784
Rp1785
sg12
(lp1786
g6
(g7
g8
(F213.42911904578443
F45.98650215978806
tp1787
tp1788
Rp1789
ag6
(g7
g8
(F195.268089966177
F27.838114380670458
tp1790
tp1791
Rp1792
ag6
(g7
g8
(F195.2593382059966
F12.002664268406143
tp1793
tp1794
Rp1795
ag1777
ag1774
ag6
(g7
g8
(F114.59077637339067
F43.16006148319754
tp1796
tp1797
Rp1798
ag1179
ag1176
ag6
(g7
g8
(F148.3606064508616
F95.30167068504328
tp1799
tp1800
Rp1801
ag1258
ag1261
ag6
(g7
g8
(F213.43007875889757
F71.26252627366001
tp1802
tp1803
Rp1804
asg56
I00
sg57
(lp1805
I00
aI00
aI00
aI00
aI00
aI00
aI01
aI01
aI01
aI01
aI01
aI01
asg59
(lp1806
(iPoly
Border
p1807
(dp1808
g63
I00
sg64
I4
sg65
(iPoly
Border
p1809
(dp1810
g63
I00
sg64
I4
sg65
(iPoly
Border
p1811
(dp1812
g63
I00
sg64
I4
sg65
(iPoly
Border
p1813
(dp1814
g63
I00
sg64
I4
sg65
g1807
sg78
g1673
sg368
g1811
sbsg78
g1688
sg368
g1809
sbsg78
g1165
sg368
g1807
sbsg78
g1229
sg368
g1813
sbag1809
ag1811
ag1813
asbsg63
I00
sg65
(iPoly
Border
p1815
(dp1816
g368
g1769
sg369
(lp1817
g1780
ag1684
ag1681
asg78
g1673
sg63
I00
sg65
Nsbsbsbsbag1763
ag1769
ag1815
asg5
g6
(g7
g8
(F131.8515570538368
F9.200517456450216
tp1818
tp1819
Rp1820
sg56
I00
sbsg63
I00
sg65
(iPoly
Border
p1821
(dp1822
g368
g1676
sg369
(lp1823
g1687
ag1792
ag1789
ag6
(g7
g8
(F213.4300793235668
F71.27739800226045
tp1824
tp1825
Rp1826
asg78
g1781
sg63
I00
sg65
(iPoly
Border
p1827
(dp1828
g368
g1821
sg369
(lp1829
g1826
ag6
(g7
g8
(F225.06012750376712
F82.91035521676581
tp1830
tp1831
Rp1832
asg78
g1229
sg63
I00
sg65
(iPoly
Border
p1833
(dp1834
g368
g1827
sg369
(lp1835
g1832
ag1308
ag1305
ag6
(g7
g8
(F273.0350915223454
F78.78955387882058
tp1836
tp1837
Rp1838
asg78
g1282
sg63
I00
sg65
(iPoly
Border
p1839
(dp1840
g368
g1833
sg369
(lp1841
g1838
ag1669
ag1666
ag1663
asg78
g1655
sg63
I00
sg65
Nsbsbsbsbsbag1821
ag1827
ag1833
ag1839
asg5
g6
(g7
g8
(F245.71266244637144
F27.838114380670458
tp1842
tp1843
Rp1844
sg56
I00
sbsg63
I00
sg65
(iPoly
Border
p1845
(dp1846
g368
g1658
sg369
(lp1847
g1672
ag6
(g7
g8
(F300.46645204460214
F106.22462007713071
tp1848
tp1849
Rp1850
asg78
g1282
sg63
I00
sg65
(iPoly
Border
p1851
(dp1852
g368
g1845
sg369
(lp1853
g1850
ag1425
ag6
(g7
g8
(F327.9816924259275
F102.93256897125903
tp1854
tp1855
Rp1856
asg78
g1396
sg63
I00
sg65
(iPoly
Border
p1857
(dp1858
g368
g1851
sg369
(lp1859
g1856
ag1625
ag6
(g7
g8
(F373.1470673922979
F53.69812039373002
tp1860
tp1861
Rp1862
asg78
g1608
sg63
I00
sg65
(iPoly
Border
p1863
(dp1864
g368
g1857
sg369
(lp1865
g1862
ag6
(g7
g8
(F373.14663617054043
F52.12848769209727
tp1866
tp1867
Rp1868
ag6
(g7
g8
(F336.87784330587317
F15.890623116153005
tp1869
tp1870
Rp1871
ag6
(g7
g8
(F336.68045914347425
I-512
tp1872
tp1873
Rp1874
asg78
(iPoly
Poly
p1875
(dp1876
g4
I00
sg59
(lp1877
(iPoly
Border
p1878
(dp1879
g368
Nsg369
(lp1880
g1874
ag1871
ag1868
ag6
(g7
g8
(F373.14707356076127
F53.720573392942036
tp1881
tp1882
Rp1883
asg78
g1655
sg63
I00
sg65
(iPoly
Border
p1884
(dp1885
g368
g1878
sg369
(lp1886
g1883
ag1631
ag1634
ag6
(g7
g8
(F413.0952900187578
F61.0765530468408
tp1887
tp1888
Rp1889
asg78
g1608
sg63
I00
sg65
(iPoly
Border
p1890
(dp1891
g368
g1884
sg369
(lp1892
g1889
ag6
(g7
g8
(F413.11609012657505
F28.47009670302415
tp1893
tp1894
Rp1895
ag6
(g7
g8
(F425.6843445793065
F15.890623116153005
tp1896
tp1897
Rp1898
ag6
(g7
g8
(F425.7818788209166
I-512
tp1899
tp1900
Rp1901
asg78
(iPoly
Poly
p1902
(dp1903
g4
I00
sg59
(lp1904
(iPoly
Border
p1905
(dp1906
g368
Nsg369
(lp1907
g1901
ag1898
ag1895
ag6
(g7
g8
(F413.09531878269786
F61.03146240769734
tp1908
tp1909
Rp1910
asg78
g1875
sg63
I00
sg65
(iPoly
Border
p1911
(dp1912
g368
g1905
sg369
(lp1913
g1910
ag6
(g7
g8
(F423.14872733754095
F71.08273828288858
tp1914
tp1915
Rp1916
asg78
g1608
sg63
I00
sg65
(iPoly
Border
p1917
(dp1918
g368
g1911
sg369
(lp1919
g1916
ag6
(g7
g8
(F453.47708235044763
F71.06844226904148
tp1920
tp1921
Rp1922
ag6
(g7
g8
(F455.9690791280385
F68.57839809300476
tp1923
tp1924
Rp1925
ag6
(g7
g8
(I512
F68.51373348044653
tp1926
tp1927
Rp1928
asg78
g1587
sg63
I00
sg65
Nsbsbsbag1911
ag1917
asg5
g6
(g7
g8
(F453.47708235044763
F28.47009670302415
tp1929
tp1930
Rp1931
sg56
I00
sbsg63
I00
sg65
Nsbsbsbag1884
ag1890
asg5
g6
(g7
g8
(F385.3233523554339
F15.890623116153005
tp1932
tp1933
Rp1934
sg56
I00
sbsg63
I00
sg65
Nsbsbsbsbsbag1845
ag1851
ag1857
ag1863
asg5
g6
(g7
g8
(F324.7011271209797
F52.12848769209727
tp1935
tp1936
Rp1937
sg56
I00
sbsg368
g1645
sbsg78
g1875
sg368
g1643
sbsg78
g1902
sg368
g1653
sbag1645
ag1647
ag1649
ag1651
ag1653
asbsg63
I00
sg65
(iPoly
Border
p1938
(dp1939
g368
g1596
sg369
(lp1940
g1607
ag1922
ag1925
ag1928
asg78
g1902
sg63
I00
sg65
Nsbsbsbag1596
ag1938
asg5
g6
(g7
g8
(F455.9690791280385
F111.1767436590221
tp1941
tp1942
Rp1943
sg56
I00
sbsg63
I00
sg65
(iPoly
Border
p1944
(dp1945
g368
g1572
sg369
(lp1946
g1586
ag6
(g7
g8
(F396.6958724695029
F128.63962804764822
tp1947
tp1948
Rp1949
asg78
g1608
sg63
I00
sg65
(iPoly
Border
p1950
(dp1951
g368
g1944
sg369
(lp1952
g1949
ag1410
ag1407
ag6
(g7
g8
(F383.32284737033854
F167.76238868707867
tp1953
tp1954
Rp1955
asg78
g1396
sg63
I00
sg65
(iPoly
Border
p1956
(dp1957
g368
g1950
sg369
(lp1958
g1955
ag6
(g7
g8
(F388.09358725874506
F172.53414154410436
tp1959
tp1960
Rp1961
asg78
g1455
sg63
I00
sg65
(iPoly
Border
p1962
(dp1963
g368
g1956
sg369
(lp1964
g1961
ag1565
ag1562
ag1559
asg78
g1551
sg63
I00
sg65
Nsbsbsbsbsbag1944
ag1950
ag1956
ag1962
asg5
g6
(g7
g8
(F427.72312209839185
F146.0643861617404
tp1965
tp1966
Rp1967
sg56
I00
sbsg63
I00
sg65
(iPoly
Border
p1968
(dp1969
g368
g1554
sg369
(lp1970
g1568
ag1475
ag1472
ag6
(g7
g8
(F423.1736131458533
F228.3202237194683
tp1971
tp1972
Rp1973
asg78
g1455
sg63
I00
sg65
(iPoly
Border
p1974
(dp1975
g368
g1968
sg369
(lp1976
g1973
ag1547
ag1544
ag1541
asg78
g1533
sg63
I00
sg65
Nsbsbsbag1968
ag1974
asg5
g6
(g7
g8
(F440.0136147409238
F186.7160373997691
tp1977
tp1978
Rp1979
sg56
I00
sbsg63
I00
sg65
(iPoly
Border
p1980
(dp1981
g368
g1536
sg369
(lp1982
g1550
ag1466
ag6
(g7
g8
(F416.49948262147393
F252.57367095451772
tp1983
tp1984
Rp1985
asg78
g1455
sg63
I00
sg65
(iPoly
Border
p1986
(dp1987
g368
g1980
sg369
(lp1988
g1985
ag1529
ag1526
ag1523
asg78
g1515
sg63
I00
sg65
Nsbsbsbag1980
ag1986
asg5
g6
(g7
g8
(F474.9653098176443
F234.9619118295832
tp1989
tp1990
Rp1991
sg56
I00
sbsg63
I00
sg65
(iPoly
Border
p1992
(dp1993
g368
g1518
sg369
(lp1994
g1532
ag6
(g7
g8
(F412.84831389124633
F256.27833111792785
tp1995
tp1996
Rp1997
asg78
g1455
sg63
I00
sg65
(iPoly
Border
p1998
(dp1999
g368
g1992
sg369
(lp2000
g1997
ag525
ag522
ag6
(g7
g8
(F420.3013297155651
F347.0951018456117
tp2001
tp2002
Rp2003
asg78
g511
sg63
I00
sg65
(iPoly
Border
p2004
(dp2005
g368
g1998
sg369
(lp2006
g2003
ag6
(g7
g8
(F442.3478659263091
F347.0847652444398
tp2007
tp2008
Rp2009
ag6
(g7
g8
(F458.33171739648867
F331.11159293588616
tp2010
tp2011
Rp2012
ag6
(g7
g8
(I512
F331.0741260005262
tp2013
tp2014
Rp2015
asg78
g437
sg63
I00
sg65
Nsbsbsbsbag1992
ag1998
ag2004
asg5
g6
(g7
g8
(F442.3478659263091
F302.87665203570276
tp2016
tp2017
Rp2018
sg56
I00
sbsg368
g1511
sbsg78
g511
sg368
g1509
sbsg78
(iPoly
Poly
p2019
(dp2020
g3
I01
sg4
I01
sg5
g6
(g7
g8
(F319.7052718636993
F247.461165209833
tp2021
tp2022
Rp2023
sg12
(lp2024
g6
(g7
g8
(F337.2070805018263
F296.92080563383126
tp2025
tp2026
Rp2027
ag584
ag587
ag6
(g7
g8
(F303.51995348515305
F311.2864378680983
tp2028
tp2029
Rp2030
ag623
ag626
ag6
(g7
g8
(F298.04886217827436
F239.45388335179604
tp2031
tp2032
Rp2033
ag1354
ag1357
ag6
(g7
g8
(F335.9576265611117
F225.1129115253218
tp2034
tp2035
Rp2036
ag1490
ag6
(g7
g8
(F358.3186530225718
F275.8020765088551
tp2037
tp2038
Rp2039
asg56
I00
sg57
(lp2040
I01
aI01
aI01
aI01
aI01
aI01
aI01
aI01
aI01
aI01
aI01
aI01
asg59
(lp2041
(iPoly
Border
p2042
(dp2043
g63
I00
sg64
I3
sg65
(iPoly
Border
p2044
(dp2045
g63
I00
sg64
I4
sg65
(iPoly
Border
p2046
(dp2047
g63
I00
sg64
I4
sg65
(iPoly
Border
p2048
(dp2049
g63
I00
sg64
I4
sg65
(iPoly
Border
p2050
(dp2051
g63
I00
sg64
I2
sg65
g2042
sg78
g511
sg368
g2048
sbsg78
g570
sg368
g2046
sbsg78
g609
sg368
g2044
sbsg78
g1343
sg368
g2042
sbsg78
g1455
sg368
g2050
sbag2044
ag2046
ag2048
ag2050
asbsg368
g1507
sbsg78
g1343
sg368
g1505
sbsg78
g1396
sg368
g1503
sbsg78
g1569
sg368
g1501
sbsg78
g1551
sg368
g1499
sbsg78
g1533
sg368
g1513
sbag1501
ag1503
ag1505
ag1507
ag1509
ag1511
ag1513
asbsg368
g1451
sbsg78
g1343
sg368
g1449
sbsg78
g1282
sg368
g1447
sbsg78
g1655
sg368
g1445
sbsg78
g1608
sg368
g1443
sbsg78
g1569
sg368
g1453
sbag1445
ag1447
ag1449
ag1451
ag1453
asbsg368
g1386
sbsg78
g1455
sg368
g1384
sbsg78
g2019
sg368
g1394
sbag1386
ag1388
ag1390
ag1392
ag1394
asbsg368
g1339
sbsg78
g790
sg368
g1337
sbsg78
(iPoly
Poly
p2052
(dp2053
g3
I00
sg4
I01
sg5
g6
(g7
g8
(F205.46288156131334
F162.1026988644608
tp2054
tp2055
Rp2056
sg12
(lp2057
g6
(g7
g8
(F241.77163864920345
F177.57597199228354
tp2058
tp2059
Rp2060
ag1320
ag1317
ag6
(g7
g8
(F213.50969971395128
F132.115629295352
tp2061
tp2062
Rp2063
ag1243
ag1246
ag6
(g7
g8
(F140.3408376176943
F150.60872313796816
tp2064
tp2065
Rp2066
ag870
ag6
(g7
g8
(F178.3516135125519
F200.0732317349129
tp2067
tp2068
Rp2069
ag825
ag822
asg56
I00
sg57
(lp2070
I01
aI01
aI01
aI01
aI01
aI01
aI01
aI01
aI01
aI01
aI01
asg59
(lp2071
(iPoly
Border
p2072
(dp2073
g63
I00
sg64
I4
sg65
(iPoly
Border
p2074
(dp2075
g63
I00
sg64
I4
sg65
(iPoly
Border
p2076
(dp2077
g63
I00
sg64
I3
sg65
(iPoly
Border
p2078
(dp2079
g63
I00
sg64
I4
sg65
g2072
sg78
g790
sg368
g2076
sbsg78
g859
sg368
g2074
sbsg78
g1229
sg368
g2072
sbsg78
g1282
sg368
g2078
sbag2074
ag2076
ag2078
asbsg368
g1335
sbsg78
g1229
sg368
g1333
sbsg78
g1673
sg368
g1331
sbsg78
g1655
sg368
g1329
sbsg78
g1396
sg368
g1341
sbag1331
ag1333
ag1335
ag1337
ag1339
ag1341
asbsg368
g1278
sbsg78
g2052
sg368
g1276
sbsg78
g859
sg368
g1274
sbsg78
g1165
sg368
g1272
sbsg78
g1781
sg368
g1270
sbsg78
g1673
sg368
g1280
sbag1272
ag1274
ag1276
ag1278
ag1280
asbsg368
g1225
sbsg78
g859
sg368
g1223
sbsg78
g917
sg368
g1221
sbsg78
g1721
sg368
g1219
sbsg78
g1706
sg368
g1217
sbsg78
g1688
sg368
g1215
sbsg78
g1781
sg368
g1227
sbag1217
ag1219
ag1221
ag1223
ag1225
ag1227
asbsg63
I00
sg65
(iPoly
Border
p2080
(dp2081
g368
g1159
sg369
(lp2082
g1164
ag1741
ag1744
ag1747
asg78
g1721
sg63
I00
sg65
Nsbsbsbsbsbag1147
ag1153
ag1159
ag2080
asg5
g6
(g7
g8
(F37.94913601549964
F167.07017016336096
tp2083
tp2084
Rp2085
sg56
I00
sbsg368
g907
sbsg78
g1165
sg368
g905
sbsg78
g1229
sg368
g903
sbsg78
g2052
sg368
g915
sbag905
ag907
ag909
ag911
ag913
ag915
asbsg368
g851
sbsg78
g2052
sg368
g849
sbsg78
g1282
sg368
g847
sbsg78
g1343
sg368
g845
sbsg78
g609
sg368
g843
sbsg78
g662
sg368
g857
sbag845
ag847
ag849
ag851
ag853
ag855
ag857
asbsg368
g786
sbsg78
g859
sg368
g784
sbsg78
g1
sg368
g782
sbsg78
g144
sg368
g780
sbsg78
g706
sg368
g788
sbag782
ag784
ag786
ag788
asbsg368
g738
sbsg78
g790
sg368
g746
sbag740
ag742
ag744
ag746
asbsg368
g700
sbsg78
g790
sg368
g698
sbsg78
g609
sg368
g696
sbsg78
g299
sg368
g694
sbsg78
g242
sg368
g704
sbag696
ag698
ag700
ag702
ag704
asbsg368
g656
sbsg78
g790
sg368
g654
sbsg78
g1343
sg368
g652
sbsg78
g2019
sg368
g650
sbsg78
g570
sg368
g660
sbag652
ag654
ag656
ag658
ag660
asbsg368
g601
sbsg78
g2019
sg368
g599
sbsg78
g511
sg368
g607
sbag601
ag603
ag605
ag607
asbsg368
g562
sbsg78
g2019
sg368
g560
sbsg78
g1455
sg368
g558
sbsg78
g1515
sg368
g568
sbag560
ag562
ag564
ag566
ag568
asbsg368
g505
sbsg78
g570
sg368
g503
sbsg78
g299
sg368
g501
sbsg78
g380
sg368
g499
sbsg78
g419
sg368
g509
sbag501
ag503
ag505
ag507
ag509
asbsg63
I00
sg65
(iPoly
Border
p2086
(dp2087
g368
g446
sg369
(lp2088
g451
ag555
ag6
(g7
g8
(F420.27327103087345
F347.0951150010312
tp2089
tp2090
Rp2091
asg78
g511
sg63
I00
sg65
(iPoly
Border
p2092
(dp2093
g368
g2086
sg369
(lp2094
g2091
ag2009
ag2012
ag2015
asg78
g1515
sg63
I00
sg65
Nsbsbsbsbag446
ag2086
ag2092
asg5
g6
(g7
g8
(F458.33171739648867
F375.31970614462324
tp2095
tp2096
Rp2097
sg56
I00
sbsg63
I00
sg65
(iPoly
Border
p2098
(dp2099
g368
g422
sg369
(lp2100
g436
ag493
ag490
ag6
(g7
g8
(F393.28011975987795
F475.3959409911306
tp2101
tp2102
Rp2103
asg78
g452
sg63
I00
sg65
(iPoly
Border
p2104
(dp2105
g368
g2098
sg369
(lp2106
g2103
ag6
(g7
g8
(F405.2914879191389
F487.40164499922207
tp2107
tp2108
Rp2109
asg78
g380
sg63
I00
sg65
(iPoly
Border
p2110
(dp2111
g368
g2104
sg369
(lp2112
g2109
ag412
ag415
ag418
asg78
g398
sg63
I00
sg65
Nsbsbsbsbag2098
ag2104
ag2110
asg5
g6
(g7
g8
(F436.9627810197727
F449.24235980901886
tp2113
tp2114
Rp2115
sg56
I00
sbsg63
I00
sg65
Nsbsbag407
asg5
g6
(g7
g8
(F469.27244176089505
F493.20055733636445
tp2116
tp2117
Rp2118
sg56
I00
sbsg63
I00
sg65
(iPoly
Border
p2119
(dp2120
g368
g383
sg369
(lp2121
g397
ag6
(g7
g8
(F393.3164074381657
F475.4322115573881
tp2122
tp2123
Rp2124
asg78
g419
sg63
I00
sg65
(iPoly
Border
p2125
(dp2126
g368
g2119
sg369
(lp2127
g2124
ag484
ag481
ag6
(g7
g8
(F319.1538368538895
F441.805124272335
tp2128
tp2129
Rp2130
asg78
g452
sg63
I00
sg65
(iPoly
Border
p2131
(dp2132
g368
g2125
sg369
(lp2133
g2130
ag343
ag6
(g7
g8
(F285.04133517390676
F467.53464535786173
tp2134
tp2135
Rp2136
asg78
g299
sg63
I00
sg65
(iPoly
Border
p2137
(dp2138
g368
g2131
sg369
(lp2139
g2136
ag376
ag373
asg78
g363
sg63
I00
sg65
Nsbsbsbsbsbag2119
ag2125
ag2131
ag2137
asg5
g6
(g7
g8
(F337.9650721775931
F489.92262128712537
tp2140
tp2141
Rp2142
sg56
I00
sbsg63
I00
sg65
(iPoly
Border
p2143
(dp2144
g368
g366
sg369
(lp2145
g379
ag307
ag6
(g7
g8
(F270.9682970663051
F438.92933491274255
tp2146
tp2147
Rp2148
asg78
g299
sg63
I00
sg65
(iPoly
Border
p2149
(dp2150
g368
g2143
sg369
(lp2151
g2148
ag253
ag256
ag6
(g7
g8
(F182.41843016692135
F437.51610848638046
tp2152
tp2153
Rp2154
asg78
g242
sg63
I00
sg65
(iPoly
Border
p2155
(dp2156
g368
g2149
sg369
(lp2157
g2154
ag1039
ag6
(g7
g8
(F166.94680389718076
F455.1288403071695
tp2158
tp2159
Rp2160
asg78
g1031
sg63
I00
sg65
(iPoly
Border
p2161
(dp2162
g368
g2155
sg369
(lp2163
g2160
ag1077
ag1080
asg78
g1010
sg63
I00
sg65
Nsbsbsbsbsbag2143
ag2149
ag2155
ag2161
asg5
g6
(g7
g8
(F224.27024394274872
F453.0012217895457
tp2164
tp2165
Rp2166
sg56
I00
sbsg368
g359
sbsg78
g242
sg368
g357
sbsg78
g662
sg368
g355
sbsg78
g609
sg368
g353
sbsg78
g570
sg368
g351
sbsg78
g452
sg368
g349
sbsg78
g380
sg368
g361
sbag351
ag353
ag355
ag357
ag359
ag361
asbsg368
g295
sbsg78
g662
sg368
g293
sbsg78
g186
sg368
g291
sbsg78
g1031
sg368
g289
sbsg78
g363
sg368
g297
sbag291
ag293
ag295
ag297
asbsg368
g238
sbsg78
g1031
sg368
g236
sbsg78
g79
sg368
g234
sbsg78
g144
sg368
g232
sbsg78
g706
sg368
g230
sbsg78
g662
sg368
g240
sbag232
ag234
ag236
ag238
ag240
asbsg368
g182
sbsg78
g79
sg368
g180
sbsg78
g1
sg368
g178
sbsg78
g748
sg368
g176
sbsg78
g706
sg368
g184
sbag178
ag180
ag182
ag184
asbsg368
g140
sbsg78
g1
sg368
g138
sbsg78
g953
sg368
g136
sbsg78
g992
sg368
g134
sbsg78
g1031
sg368
g132
sbsg78
g186
sg368
g142
sbag134
ag136
ag138
ag140
ag142
asbsg368
g74
sbsg78
g953
sg368
g72
sbsg78
g935
sg368
g70
sbsg78
g917
sg368
g68
sbsg78
g859
sg368
g66
sbsg78
g748
sg368
g61
sbsg78
g144
sg368
g76
sbag66
ag68
ag70
ag72
ag74
ag76
asbag1165
ag859
ag748
ag144
ag79
ag1781
ag1229
ag2052
ag706
ag186
ag1031
ag1282
ag790
ag609
ag662
ag242
ag1396
ag1343
ag2019
ag570
ag299
ag1608
ag1455
ag511
ag452
a.